(lp1
I30
aI30
aI30
aI30
aI30
aI30
aI30
aI30
aI30
aI30
aI30
aI30
aI30
aI30
aI30
aI31
aI30
aI30
aI31
aI31
aI31
aI30
aI30
aI30
aI30
aI30
aI30
aI30
aI31
aI30
aI30
aI30
aI30
aI30
aI30
aI30
aI30
aI30
aI30
aI30
aI30
aI30
aI31
aI31
aI31
aI31
aI31
aI31
aI30
aI31
aI30
aI30
aI30
aI30
aI30
aI30
aI30
aI31
aI27
aI29
aI29
aI29
aI32
aI32
aI35
aI30
aI30
aI30
aI30
aI29
aI29
aI30
aI30
aI30
aI35
aI31
aI31
aI31
aI29
aI30
aI30
aI30
aI30
aI30
aI30
aI30
aI30
aI30
aI30
aI30
aI30
aI30
aI30
aI31
aI30
aI30
aI30
aI30
aI31
aI30
aI30
aI30
aI30
aI30
aI29
aI31
aI31
aI29
aI29
aI29
aI30
aI33
aI30
aI33
aI30
aI33
aI30
aI33
aI31
aI33
aI32
aI28
aI32
aI28
aI33
aI32
aI28
aI33
aI32
aI28
aI32
aI28
aI33
aI29
aI29
aI33
aI33
aI28
aI32
aI28
aI29
aI31
aI29
aI29
aI29
aI29
aI32
aI28
aI33
aI32
aI28
aI33
aI32
aI28
aI33
aI33
aI32
aI28
aI33
aI33
aI33
aI33
aI31
aI33
aI31
aI33
aI31
aI30
aI30
aI31
aI31
aI30
aI30
aI29
aI33
aI32
aI28
aI33
aI32
aI28
aI31
aI31
aI31
aI33
aI33
aI33
aI31
aI31
aI31
aI31
aI31
aI31
aI31
aI31
aI31
aI31
aI31
aI31
aI31
aI31
aI29
aI29
aI29
aI29
aI29
aI29
aI29
aI33
aI30
aI33
aI30
aI33
aI30
aI33
aI30
aI33
aI30
aI33
aI30
aI33
aI30
aI33
aI30
aI33
aI30
aI33
aI30
aI33
aI30
aI33
aI30
aI33
aI30
aI33
aI30
aI33
aI30
aI33
aI30
aI31
aI33
aI30
aI33
aI32
aI28
aI33
aI32
aI28
aI33
aI32
aI28
aI33
aI32
aI28
aI33
aI29
aI30
aI34
aI31
aI28
aI30
aI29
aI29
aI31
aI31
aI30
aI31
aI29
aI31
aI31
aI31
aI30
aI29
aI30
aI30
aI30
aI29
aI29
aI31
aI31
aI31
aI29
aI31
aI29
aI29
aI29
aI29
aI29
aI29
aI31
aI29
aI31
aI31
aI31
aI31
aI31
aI28
aI31
aI31
aI31
aI31
aI31
aI31
aI31
aI31
aI31
aI29
aI32
aI31
aI31
aI29
aI29
aI29
aI31
aI31
aI29
aI31
aI29
aI29
aI29
aI31
aI31
aI33
aI30
aI29
aI29
aI29
aI29
aI29
aI29
aI29
aI29
aI29
aI29
aI31
aI29
aI33
aI31
aI24
aI33
aI32
aI28
aI29
aI29
aI29
aI29
aI29
aI29
aI29
aI29
aI29
aI29
aI29
aI29
aI29
aI29
aI29
aI29
aI34
aI28
aI31
aI30
aI30
aI29
aI31
aI31
aI31
aI31
aI31
aI30
aI29
aI29
aI29
aI29
aI31
aI31
aI31
aI31
aI31
aI31
aI29
aI31
aI33
aI30
aI29
aI31
aI31
aI31
aI31
aI31
aI31
aI31
aI31
aI31
aI31
aI31
aI24
aI31
aI25
aI31
aI31
aI31
aI31
aI30
aI31
aI31
aI33
aI30
aI33
aI30
aI31
aI30
aI33
aI31
aI31
aI31
aI31
aI29
aI29
aI30
aI31
aI31
aI31
aI31
aI31
aI31
aI31
aI29
aI31
aI31
aI31
aI31
aI31
aI31
aI31
aI31
aI31
aI31
aI31
aI29
aI31
aI31
aI31
aI29
aI31
aI31
aI31
aI31
aI31
aI31
aI31
aI31
aI31
aI31
aI31
aI29
aI31
aI31
aI31
aI31
aI31
aI29
aI31
aI27
aI31
aI31
aI31
aI31
aI33
aI29
aI29
aI32
aI28
aI33
aI30
aI29
a.