(lp1
I361
aI413
aI413
aI413
aI361
aI361
aI413
aI361
aI361
aI413
aI413
aI413
aI413
aI413
aI413
aI413
aI361
aI413
aI413
aI413
aI413
aI413
aI413
aI413
aI413
aI413
aI413
aI361
aI361
aI361
aI361
aI361
aI361
aI361
aI413
aI413
aI361
aI361
aI413
aI413
aI413
aI361
aI413
aI413
aI413
aI413
aI413
aI413
aI413
aI413
aI413
aI361
aI361
aI369
aI361
aI413
aI413
aI413
aI413
aI369
aI369
aI369
aI413
aI361
aI361
aI413
aI361
aI361
aI413
aI413
aI413
aI413
aI413
aI413
aI413
aI413
aI413
aI411
aI413
aI369
aI413
aI413
aI413
aI413
aI413
aI413
aI413
aI413
aI474
aI413
aI413
aI413
aI413
aI474
aI413
aI413
aI361
aI413
aI413
aI413
aI413
aI413
aI413
aI413
aI413
aI413
aI413
aI413
aI413
aI413
aI413
aI413
aI361
aI413
aI413
aI413
aI413
aI413
aI413
aI413
aI413
aI413
aI413
aI413
aI413
aI369
aI413
aI413
aI413
aI413
aI413
aI413
aI413
aI416
aI416
aI416
aI416
aI361
aI361
aI361
aI361
aI361
aI474
aI474
aI474
aI318
aI318
aI474
aI474
aI474
aI474
aI474
aI474
aI474
aI474
aI474
aI361
aI361
aI361
aI361
aI361
aI361
aI361
aI361
aI350
aI474
aI413
aI413
aI413
aI369
aI361
aI361
aI413
aI413
aI361
aI361
aI361
aI361
aI361
aI361
aI474
aI474
aI474
aI413
aI413
aI474
aI474
aI474
aI474
aI474
aI474
aI474
aI416
aI474
aI474
aI474
aI474
aI413
aI413
aI413
aI413
a.