(lp1
I45
aI45
aI46
aI46
aI46
aI46
aI46
aI46
aI46
aI45
aI45
aI46
aI46
aI45
aI46
aI46
aI46
aI45
aI45
aI45
aI45
aI46
aI46
aI45
aI46
aI43
aI37
aI43
aI45
aI41
aI45
aI46
aI45
aI45
aI46
aI45
aI45
aI42
aI44
aI46
aI45
aI45
aI43
aI46
aI42
aI44
aI46
aI44
aI46
aI46
aI45
aI42
aI46
aI43
aI45
aI46
aI35
aI43
aI43
aI38
aI44
aI44
aI45
aI41
aI45
aI45
aI44
aI45
aI35
aI44
aI44
aI43
aI44
aI45
aI45
aI45
aI44
aI44
aI46
aI46
aI44
aI37
aI46
aI45
aI45
aI45
aI46
aI46
aI46
aI46
aI46
aI44
aI45
aI45
aI45
aI46
aI44
aI44
aI44
aI45
aI45
aI45
aI46
aI45
aI45
aI45
aI45
aI45
aI45
aI45
aI45
aI45
aI44
aI44
aI44
aI44
aI44
aI38
aI43
aI43
aI44
aI44
aI44
aI44
aI44
aI46
aI46
aI44
aI44
aI38
aI46
aI46
aI45
aI46
aI43
aI46
aI46
aI46
aI46
aI46
aI46
aI46
aI45
aI46
aI46
aI46
aI46
aI46
aI44
aI45
aI45
aI44
aI46
aI45
aI41
aI45
aI43
aI45
aI46
aI46
aI45
aI46
aI45
aI45
aI46
aI45
aI43
aI45
aI45
aI43
aI45
aI45
aI45
aI43
aI45
aI44
aI43
aI46
aI44
aI44
aI45
aI45
aI45
aI45
aI45
aI45
aI43
aI43
aI43
aI45
aI44
aI43
aI43
aI41
aI46
aI46
aI44
aI46
aI47
aI47
aI47
aI44
aI44
aI45
aI45
aI43
aI42
aI44
aI42
aI45
aI45
aI46
aI45
aI46
aI44
aI46
aI45
aI45
aI45
aI45
aI45
aI44
aI44
aI45
aI44
aI44
aI45
aI43
aI45
aI45
aI45
aI45
aI45
aI45
aI45
aI45
aI45
aI35
aI35
aI35
aI45
aI46
aI44
aI44
aI44
aI44
aI44
aI44
aI45
aI45
aI45
aI45
aI45
aI45
aI44
aI45
aI45
aI46
aI46
aI46
aI45
aI45
aI45
aI39
aI45
aI45
aI45
aI45
aI42
aI42
aI41
aI41
aI42
aI44
aI43
aI43
aI45
aI45
aI45
aI45
aI46
aI45
aI45
aI45
aI45
aI45
aI45
aI45
aI45
aI37
aI46
aI46
aI45
aI45
aI46
aI43
aI45
aI45
aI46
aI46
aI46
aI46
aI32
aI3
aI46
aI46
aI43
aI43
a.