(dp1
S'1JTX:sp|P0A0N4.1|QACR_STAAU'
p2
I188
sS'3VVX:pdb|3VVX|B'
p3
I194
sS'1RKT:sp|O31560.1|YFIR_BACSU'
p4
I205
sS'2G0E:sp|P0A0N5.1|QACR_STAHA'
p5
I188
sS'3QKX:sp|P44923.1|Y893_HAEIN'
p6
I187
sS'2XPU:sp|P0ACT4.2|TETR4_ECOLX'
p7
I218
sS'3FK6:sp|P0ACT4.2|TETR4_ECOLX'
p8
I218
sS'2REK:AGK79620.1'
p9
I198
sS'3VPR:pdb|3VPR|D'
p10
I190
sS'2XB5:sp|P0ACT4.2|TETR4_ECOLX'
p11
I218
sS'3KZ9:pdb|3KZ9|D'
p12
I206
sS'2HXO:pdb|2HXO|B'
p13
I237
sS'5C4Y:pdb|5C4Y|B'
p14
I184
sS'2Q24:NP_001104503.1'
p15
I336
sS'3QQA:pdb|3QQA|A'
p16
I216
sS'3BJB:pdb|3BJB|F'
p17
I207
sS'4JKZ:pdb|4JKZ|A'
p18
I194
sS'4MK6:CAC98559.1'
p19
I186
sS'3G1M:sp|P9WMC1.1|ETHR_MYCTU'
p20
I216
sS'1VI0:sp|P94548.1|FADR_BACSU'
p21
I194
sS'1NIK:sp|P08518.2|RPB2_YEAST'
p22
I1224
sS'5D19:AKM98735.1'
p23
I219
sS'2FQ4:AGK79292.1'
p24
I196
sS'2I10:AGK76957.1'
p25
I212
sS'2FJ1:sp|P0ACT4.2|TETR4_ECOLX'
p26
I218
sS'3TP3:sp|P9WMC1.1|ETHR_MYCTU'
p27
I216
sS'3BTJ:sp|P0A0N3.1|QACR_STAAM'
p28
I188
sS'4D7N:sp|P0ACT4.2|TETR4_ECOLX'
p29
I218
sS'4ME9:pdb|4ME9|B'
p30
I189
sS'2VKV:sp|P0ACT4.2|TETR4_ECOLX'
p31
I218
sS'3G56:KXZ55404.1'
p32
I443
sS'3FK7:sp|P0ACT4.2|TETR4_ECOLX'
p33
I218
sS'3MNL:sp|P96856.5|KSTR_MYCTU'
p34
I220
sS'3LHQ:pdb|3LHQ|B'
p35
I220
sS'2JK3:pdb|2JK3|B'
p36
I188
sS'2Y30:pdb|2Y30|B'
p37
I267
sS'3V6G:AJF04431.1'
p38
I202
sS'4PXI:pdb|4PXI|D'
p39
I215
sS'2YVE:CAF21274.1'
p40
I177
sS'3DCF:pdb|3DCF|B'
p41
I218
sS'2WUI:pdb|2WUI|A'
p42
I210
sS'1JT0:sp|P0A0N4.1|QACR_STAAU'
p43
I188
sS'3B6A:pdb|3B6A|H'
p44
I234
sS'4ICH:pdb|4ICH|B'
p45
I311
sS'2RAE:pdb|2RAE|A'
p46
I207
sS'4KWA:pdb|4KWA|B'
p47
I195
sS'2NS7:sp|P0ACT4.2|TETR4_ECOLX'
p48
I218
sS'4W1U:sp|P9WMB9.1|KSTR2_MYCTU'
p49
I200
sS'3O8G:sp|P9WMC1.1|ETHR_MYCTU'
p50
I216
sS'4AF5:sp|Q8NQ97.1|ACNR_CORGL'
p51
I188
sS'3FRQ:CRK62764.1'
p52
I194
sS'2HKU:pdb|2HKU|B'
p53
I215
sS'3VP5:pdb|3VP5|A'
p54
I189
sS'3P9T:pdb|3P9T|B'
p55
I219
sS'3RH2:pdb|3RH2|A'
p56
I212
sS'2GBY:sp|P0A0N4.1|QACR_STAAU'
p57
I188
sS'4D7M:sp|P0ACT4.2|TETR4_ECOLX'
p58
I218
sS'4MXM:pdb|4MXM|B'
p59
I203
sS'2NS8:sp|P0ACT4.2|TETR4_ECOLX'
p60
I218
sS'1T56:sp|P9WMC1.1|ETHR_MYCTU'
p61
I216
sS'4DW6:sp|P9WMC1.1|ETHR_MYCTU'
p62
I216
sS'2D6Y:sp|Q9ADP7.1|HTHR_STRCO'
p63
I192
sS'3C2B:pdb|3C2B|B'
p64
I221
sS'5D1R:pdb|5D1R|B'
p65
I239
sS'1ZKG:pdb|1ZKG|B'
p66
I212
sS'3B6C:pdb|3B6C|B'
p67
I234
sS'2XGC:sp|P0ACT4.2|TETR4_ECOLX'
p68
I218
sS'3HTA:AGK76443.1'
p69
I187
sS'3ZQG:sp|P0ACT4.2|TETR4_ECOLX'
p70
I218
sS'4AC6:sp|Q8NQ97.1|ACNR_CORGL'
p71
I188
sS'2ID3:pdb|2ID3|B'
p72
I225
sS'4UDS:pdb|4UDS|A'
p73
I214
sS'3ZQI:sp|P0ACT4.2|TETR4_ECOLX'
p74
I218
sS'4A3F:sp|P08518.2|RPB2_YEAST'
p75
I1224
sS'3IUV:CAB46418.1'
p76
I197
sS'2WGB:pdb|2WGB|B'
p77
I190
sS'4JYK:sp|P0ACU2.1|RUTR_ECOLI'
p78
I212
sS'1JUM:sp|P0A0N4.1|QACR_STAAU'
p79
I188
sS'2UXU:sp|Q9AIU0.1|TTGR_PSEPT'
p80
I210
sS'4B1R:sp|P0ACT4.2|TETR4_ECOLX'
p81
I218
sS'2G7L:pdb|2G7L|A'
p82
I243
sS'3VIB:sp|P39897.1|MTRR_NEIGO'
p83
I210
sS'3BR0:sp|P0A0N3.1|QACR_STAAM'
p84
I188
sS'3PAS:pdb|3PAS|D'
p85
I195
sS'3HTJ:pdb|3HTJ|B'
p86
I217
sS'3IH2:pdb|3IH2|A'
p87
I202
sS'3KKD:pdb|3KKD|C'
p88
I237
sS'3V78:AJF04431.1'
p89
I202
sS'4W97:sp|P9WMB9.1|KSTR2_MYCTU'
p90
I200
sS'4V2G:sp|P0ACT4.2|TETR4_ECOLX'
p91
I218
sS'2DG8:AGK78172.1'
p92
I180
sS'3ON2:pdb|3ON2|D'
p93
I199
sS'2IU5:sp|Q9CIV9.1|DHAS_LACLA'
p94
I187
sS'3E7Q:pdb|3E7Q|B'
p95
I215
sS'2XGE:sp|P0ACT4.2|TETR4_ECOLX'
p96
I218
sS'1BJZ:pdb|1BJZ|'
p97
I207
sS'2QKO:AGK78517.1'
p98
I191
sS'3CWR:pdb|3CWR|B'
p99
I208
sS'2QWT:pdb|2QWT|A'
p100
I196
sS'3HIM:pdb|3HIM|B'
p101
I211
sS'2Y2Z:pdb|2Y2Z|A'
p102
I267
sS'4A3E:sp|P08518.2|RPB2_YEAST'
p103
I1224
sS'3BR5:sp|P0A0N3.1|QACR_STAAM'
p104
I188
sS'3JSJ:pdb|3JSJ|D'
p105
I190
sS'2TRT:pdb|2TRT|'
p106
I217
sS'4GCT:sp|Q9KVD2.2|SLMA_VIBCH'
p107
I196
sS'3T6N:CCP45875.1'
p108
I202
sS'2GFN:pdb|2GFN|B'
p109
I209
sS'3LOC:sp|P0ACU2.1|RUTR_ECOLI'
p110
I212
sS'2ZOY:CAF21274.1'
p111
I177
sS'3VOX:pdb|3VOX|D'
p112
I189
sS'2IEK:pdb|2IEK|A'
p113
I200
sS'4X1E:sp|P0ACU2.1|RUTR_ECOLI'
p114
I212
sS'3G7R:pdb|3G7R|B'
p115
I221
sS'1ZK8:pdb|1ZK8|B'
p116
I183
sS'3QBM:pdb|3QBM|B'
p117
I199
sS'3O8H:sp|P9WMC1.1|ETHR_MYCTU'
p118
I216
sS'3VUQ:pdb|3VUQ|D'
p119
I187
sS'3NI7:CAD84211.1'
p120
I213
sS'3BQY:pdb|3BQY|A'
p121
I209
sS'2ZCX:AGK75327.1'
p122
I225
sS'2OF7:pdb|2OF7|A'
p123
I260
sS'3VVZ:pdb|3VVZ|D'
p124
I194
sS'3LSJ:pdb|3LSJ|B'
p125
I220
sS'2FD5:pdb|2FD5|A'
p126
I180
sS'2XRL:sp|P0ACT4.2|TETR4_ECOLX'
p127
I218
sS'2Y31:pdb|2Y31|B'
p128
I267
sS'4G7H:sp|Q8RQE9.1|RPOB_THET8'
p129
I1119
sS'3HGY:pdb|3HGY|A'
p130
I216
sS'3LJL:pdb|3LJL|B'
p131
I156
sS'3FIW:CAB53293.1'
p132
I190
sS'2ZOZ:CAF21274.1'
p133
I177
sS'2TCT:pdb|2TCT|'
p134
I207
sS'3BRU:sp|Q3J6K8.1|ACUR_RHOS4'
p135
I219
sS'2X6O:sp|P0ACT4.2|TETR4_ECOLX'
p136
I218
sS'2XPW:sp|P0ACT4.2|TETR4_ECOLX'
p137
I218
sS'3EGQ:pdb|3EGQ|B'
p138
I170
sS'2UXP:sp|Q9AIU0.1|TTGR_PSEPT'
p139
I210
sS'2HYT:pdb|2HYT|A'
p140
I197
sS'3VW1:pdb|3VW1|D'
p141
I194
sS'3BTC:sp|P0A0N3.1|QACR_STAAM'
p142
I188
sS'3BQZ:sp|P0A0N3.1|QACR_STAAM'
p143
I188
sS'2XDN:sp|Q9AIU0.1|TTGR_PSEPT'
p144
I210
sS'3LSP:pdb|3LSP|A'
p145
I220
sS'3G1L:sp|P9WMC1.1|ETHR_MYCTU'
p146
I216
sS'3HTH:pdb|3HTH|C'
p147
I217
sS'2ZB9:CAB56137.1'
p148
I206
sS'2IAI:AGK78423.1'
p149
I201
sS'3COL:AEQ38202.1'
p150
I106
sS'3KNW:CAG69487.1'
p151
I209
sS'3BR1:sp|P0A0N3.1|QACR_STAAM'
p152
I188
sS'2XPV:sp|P0ACT4.2|TETR4_ECOLX'
p153
I218
sS'3BCG:sp|P0ACS9.1|ACRR_ECOLI'
p154
I215
sS'4M3G:sp|P9WMC1.1|ETHR_MYCTU'
p155
I216
sS'4ACI:sp|Q8NQ97.1|ACNR_CORGL'
p156
I188
sS'3CRJ:pdb|3CRJ|D'
p157
I199
sS'2DG7:CAB56142.1'
p158
I188
sS'3S5R:pdb|3S5R|B'
p159
I216
sS'3G1O:sp|P9WMC1.1|ETHR_MYCTU'
p160
I216
sS'4CGR:CAB90985.1'
p161
I236
sS'3LWJ:pdb|3LWJ|A'
p162
I202
sS'2NX4:pdb|2NX4|D'
p163
I194
sS'3BNI:pdb|3BNI|B'
p164
I229
sS'2VKE:sp|P0ACT4.2|TETR4_ECOLX'
p165
I218
sS'2OPT:pdb|2OPT|B'
p166
I234
sS'2ZCM:sp|Q5HKQ1.1|ICAR_STAEQ'
p167
I185
sS'3ANG:pdb|3ANG|B'
p168
I204
sS'2YVH:CAF21274.1'
p169
I177
sS'1Z0X:pdb|1Z0X|B'
p170
I220
sS'2FBQ:pdb|2FBQ|A'
p171
I235
sS'3VVY:pdb|3VVY|D'
p172
I194
sS'3ZQF:sp|P0ACT4.2|TETR4_ECOLX'
p173
I218
sS'3BHQ:pdb|3BHQ|B'
p174
I211
sS'3AQT:pdb|3AQT|B'
p175
I245
sS'3KKC:pdb|3KKC|D'
p176
I177
sS'3SFI:sp|P9WMC1.1|ETHR_MYCTU'
p177
I216
sS'3SDG:sp|P9WMC1.1|ETHR_MYCTU'
p178
I216
sS'4M3E:sp|P9WMC1.1|ETHR_MYCTU'
p179
I216
sS'2DTZ:sp|P0A0N4.1|QACR_STAAU'
p180
I188
sS'4NN1:CCP43975.1'
p181
I212
sS'3TP0:sp|P9WMC1.1|ETHR_MYCTU'
p182
I216
sS'2E2J:sp|P08518.2|RPB2_YEAST'
p183
I1224
sS'1JUP:sp|P0A0N4.1|QACR_STAAU'
p184
I188
sS'2PBX:pdb|2PBX|B'
p185
I203
sS'4GZY:sp|Q8RQE9.1|RPOB_THET8'
p186
I1119
sS'2W53:pdb|2W53|B'
p187
I219
sS'3HGG:pdb|3HGG|A'
p188
I220
sS'2V57:pdb|2V57|D'
p189
I190
sS'3RD3:pdb|3RD3|B'
p190
I197
sS'2O7T:pdb|2O7T|A'
p191
I199
sS'1U9N:sp|P9WMC1.1|ETHR_MYCTU'
p192
I216
sS'3HE0:pdb|3HE0|C'
p193
I196
sS'3DEW:pdb|3DEW|A'
p194
I206
sS'4ABZ:sp|P0ACT4.2|TETR4_ECOLX'
p195
I218
sS'3BR2:sp|P0A0N3.1|QACR_STAAM'
p196
I188
sS'5D18:sp|Q8NGL1.1|OR5DI_HUMAN'
p197
I313
sS'2HQ5:sp|P0A0N4.1|QACR_STAAU'
p198
I188
sS'2HYJ:AGK81081.1'
p199
I213
sS'3DPJ:pdb|3DPJ|H'
p200
I194
sS'3NXC:sp|P0C093.1|SLMA_ECOLI'
p201
I198
sS'3PPB:pdb|3PPB|B'
p202
I195
sS'4ZA6:pdb|4ZA6|B'
p203
I192
sS'2IBD:sp|Q0S7V2.1|KSTR2_RHOJR'
p204
I204
sS'4AUX:sp|P0ACT4.2|TETR4_ECOLX'
p205
I218
sS'3Q0U:sp|P9WMC1.1|ETHR_MYCTU'
p206
I216
sS'1QVT:sp|P0A0N4.1|QACR_STAAU'
p207
I188
sS'3ON4:pdb|3ON4|H'
p208
I191
sS'2PZ9:CAD30929.1'
p209
I226
sS'2UXI:sp|Q9AIU0.1|TTGR_PSEPT'
p210
I210
sS'3PM1:sp|P0A0N3.1|QACR_STAAM'
p211
I188
sS'4I6Z:pdb|4I6Z|B'
p212
I202
sS'3GZI:pdb|3GZI|A'
p213
I218
sS'3IH4:pdb|3IH4|A'
p214
I202
sS'3CCY:CAE38125.1'
p215
I200
sS'1T33:pdb|1T33|B'
p216
I224
sS'3BT9:sp|P0A0N3.1|QACR_STAAM'
p217
I188
sS'4JNN:pdb|4JNN|A'
p218
I194
sS'2VPR:sp|P51561.1|TETR8_PASMD'
p219
I207
sS'2G7S:pdb|2G7S|A'
p220
I194
sS'1JTY:sp|P0A0N4.1|QACR_STAAU'
p221
I188
sS'4GCL:pdb|4GCL|H'
p222
I212
sS'4A3G:sp|P08518.2|RPB2_YEAST'
p223
I1224
sS'2JJ7:pdb|2JJ7|B'
p224
I186
sS'3NNR:pdb|3NNR|A'
p225
I228
sS'2OER:pdb|2OER|B'
p226
I214
sS'4M3D:sp|P9WMC1.1|ETHR_MYCTU'
p227
I216
sS'3QPS:pdb|3QPS|A'
p228
I216
sS'2ZCN:sp|Q5HKQ1.1|ICAR_STAEQ'
p229
I185
sS'2NP3:AGK77954.1'
p230
I205
sS'4L62:pdb|4L62|P'
p231
I190
sS'3BTL:sp|P0A0N3.1|QACR_STAAM'
p232
I188
sS'2FX0:pdb|2FX0|A'
p233
I201
sS'4M3F:sp|P9WMC0.1|ETHR_MYCTO'
p234
I216
sS'3NRG:pdb|3NRG|E'
p235
I217
sS'4GFK:sp|Q9KVD2.2|SLMA_VIBCH'
p236
I196
sS'2ID6:pdb|2ID6|A'
p237
I202
sS'3MVP:pdb|3MVP|B'
p238
I217
sS'4MO7:pdb|4MO7|A'
p239
I212
sS'3AQS:CAF19861.1'
p240
I229
sS'1UI6:pdb|1UI6|B'
p241
I215
sS'3CDL:pdb|3CDL|B'
p242
I203
sS'3ZQL:AGK79113.1'
p243
I288
sS'1A6I:pdb|1A6I|'
p244
I217
sS'5D1W:pdb|5D1W|F'
p245
I217
sS'3VW2:pdb|3VW2|D'
p246
I194
sS'1Z77:pdb|1Z77|A'
p247
I200
sS'2RAS:pdb|2RAS|B'
p248
I212
sS'3F0C:pdb|3F0C|A'
p249
I216
sS'1ORK:pdb|1ORK|'
p250
I207
sS'3BR6:sp|P0A0N3.1|QACR_STAAM'
p251
I188
sS'2XGD:sp|P0ACT4.2|TETR4_ECOLX'
p252
I218
sS'3VW0:pdb|3VW0|D'
p253
I194
sS'4G12:ARD25060.1'
p254
I176
sS'3NPI:pdb|3NPI|B'
p255
I251
sS'2QOP:sp|P0ACS9.1|ACRR_ECOLI'
p256
I215
sS'4I76:pdb|4I76|B'
p257
I202
sS'3B81:pdb|3B81|A'
p258
I203
sS'3WHB:pdb|3WHB|B'
p259
I194
sS'4V2F:sp|P0ACT4.2|TETR4_ECOLX'
p260
I218
sS'2WV1:pdb|2WV1|B'
p261
I202
sS'1SGM:sp|P42105.2|YXAF_BACSU'
p262
I191
sS'3WHC:sp|P94548.1|FADR_BACSU'
p263
I194
sS'3ANP:pdb|3ANP|B'
p264
I204
sS'2QCO:pdb|2QCO|A'
p265
I210
sS'2NP5:pdb|2NP5|D'
p266
I203
sS'4M3B:sp|P9WMC1.1|ETHR_MYCTU'
p267
I216
sS'1JUS:sp|P0A0N4.1|QACR_STAAU'
p268
I188
sS'1JT6:sp|P0A0N4.1|QACR_STAAU'
p269
I188
sS'2F07:sp|O07001.1|YVDT_BACSU'
p270
I194
sS'3C07:ADK36539.1'
p271
I51
sS'3CJD:pdb|3CJD|B'
p272
I198
sS'2OI8:AGK81446.1'
p273
I257
sS'2G3B:pdb|2G3B|B'
p274
I208
sS'3QPL:sp|P9WMC1.1|ETHR_MYCTU'
p275
I216
sS'3F1B:AGK77876.1'
p276
I216
sS'3Q0V:sp|P9WMC1.1|ETHR_MYCTU'
p277
I216
sS'3HTI:pdb|3HTI|A'
p278
I217
sS'2EH3:pdb|2EH3|A'
p279
I179
sS'1U9O:sp|P9WMC1.1|ETHR_MYCTU'
p280
I216
sS'4HKU:CAD01027.1'
p281
I175
sS'3ZQH:sp|P0ACT4.2|TETR4_ECOLX'
p282
I218
sS'3IH3:pdb|3IH3|A'
p283
I202
sS'1QVU:sp|P0A0N4.1|QACR_STAAU'
p284
I188
sS'3BR3:sp|P0A0N3.1|QACR_STAAM'
p285
I188
sS'2GUH:pdb|2GUH|B'
p286
I214
sS'2GEN:AAA97536.1'
p287
I95
sS'3Q0W:sp|P9WMC1.1|ETHR_MYCTU'
p288
I216
sS'4NEL:pdb|4NEL|A'
p289
I190
sS'3LSR:pdb|3LSR|A'
p290
I220
sS'1RKW:sp|P0A0N4.1|QACR_STAAU'
p291
I188
sS'3GEU:sp|Q5HCN2.1|ICAR_STAAC'
p292
I186
sS'1UI5:pdb|1UI5|B'
p293
I215
sS'1QPI:sp|P0ACT4.2|TETR4_ECOLX'
p294
I218
sS'2HXI:CAA19792.1'
p295
I217
sS'2O7O:sp|P0ACT4.2|TETR4_ECOLX'
p296
I218
sS'4XK4:sp|P0ACU2.1|RUTR_ECOLI'
p297
I212
sS'4GFL:sp|B5XTG2.1|SLMA_KLEP3'
p298
I198
sS'4AC0:sp|P04483.1|TETR2_ECOLX'
p299
I207
sS'4GCK:sp|B5XTG2.1|SLMA_KLEP3'
p300
I198
sS'3EUP:pdb|3EUP|B'
p301
I204
sS'4JL3:pdb|4JL3|D'
p302
I196
s.