(dp1
S'2CWT:sp|P46881.1|PAOX_ARTGO'
p2
I638
sS'1PU4:sp|Q16853.3|AOC3_HUMAN'
p3
I763
sS'1QAK:sp|P46883.1|AMO_ECOLI'
p4
I757
sS'1US1:sp|Q16853.3|AOC3_HUMAN'
p5
I763
sS'3N9H:sp|P12807.1|AMO_PICAN'
p6
I692
sS'1W4N:sp|P46881.1|PAOX_ARTGO'
p7
I638
sS'1IQX:sp|P46881.1|PAOX_ARTGO'
p8
I638
sS'1RJO:sp|P46881.1|PAOX_ARTGO'
p9
I638
sS'1QAF:sp|P46883.1|AMO_ECOLI'
p10
I757
sS'1AV4:pdb|1AV4|'
p11
I638
sS'4EV5:sp|P12807.1|AMO_PICAN'
p12
I692
sS'2CG1:sp|P46881.1|PAOX_ARTGO'
p13
I638
sS'2PNC:sp|Q29437.1|AOCX_BOVIN'
p14
I762
sS'2CFD:sp|P46881.1|PAOX_ARTGO'
p15
I638
sS'2WOF:sp|P46883.1|AMO_ECOLI'
p16
I757
sS'2CG0:sp|P46881.1|PAOX_ARTGO'
p17
I638
sS'3KN4:pdb|3KN4|A'
p18
I646
sS'1WMN:sp|P46881.1|PAOX_ARTGO'
p19
I638
sS'4KFD:sp|P12807.1|AMO_PICAN'
p20
I692
sS'1W6G:sp|P46881.1|PAOX_ARTGO'
p21
I638
sS'3X3Z:sp|P46881.1|PAOX_ARTGO'
p22
I638
sS'1QAL:sp|P46883.1|AMO_ECOLI'
p23
I757
sS'3HIG:pdb|3HIG|B'
p24
I731
sS'1D6U:sp|P46883.1|AMO_ECOLI'
p25
I757
sS'2Y74:sp|Q16853.3|AOC3_HUMAN'
p26
I763
sS'3KII:pdb|3KII|B'
p27
I646
sS'2E2T:sp|P46881.1|PAOX_ARTGO'
p28
I638
sS'2CFW:sp|P46881.1|PAOX_ARTGO'
p29
I638
sS'2C10:sp|P11712.3|CP2C9_HUMAN'
p30
I490
sS'1SPU:sp|P46883.1|AMO_ECOLI'
p31
I757
sS'1W6C:sp|P46881.1|PAOX_ARTGO'
p32
I638
sS'2CFL:sp|P46881.1|PAOX_ARTGO'
p33
I638
sS'3SXX:sp|P12807.1|AMO_PICAN'
p34
I692
sS'3K5T:sp|P19801.4|AOC1_HUMAN'
p35
I751
sS'3HI7:pdb|3HI7|B'
p36
I731
sS'3MPH:sp|P19801.4|AOC1_HUMAN'
p37
I751
sS'1TU5:sp|Q29437.1|AOCX_BOVIN'
p38
I762
sS'3WA2:pdb|3WA2|X'
p39
I621
sS'1AVL:pdb|1AVL|'
p40
I638
sS'1LVN:pdb|1LVN|B'
p41
I727
sS'2D1W:sp|P46881.1|PAOX_ARTGO'
p42
I638
sS'2Y73:sp|Q16853.3|AOC3_HUMAN'
p43
I763
sS'4BTY:sp|Q16853.3|AOC3_HUMAN'
p44
I763
sS'3NBJ:sp|P12807.1|AMO_PICAN'
p45
I692
sS'1SIH:pdb|1SIH|A'
p46
I646
sS'2E2U:sp|P46881.1|PAOX_ARTGO'
p47
I638
sS'2OQE:sp|P12807.1|AMO_PICAN'
p48
I692
sS'1AVK:pdb|1AVK|'
p49
I638
sS'1JRQ:sp|P46883.1|AMO_ECOLI'
p50
I757
sS'3X3Y:sp|P46881.1|PAOX_ARTGO'
p51
I638
sS'3ALA:sp|Q16853.3|AOC3_HUMAN'
p52
I763
sS'1KSI:sp|Q43077.1|AMO_PEA'
p53
I674
sS'2BT3:sp|P46881.1|PAOX_ARTGO'
p54
I638
sS'2E2V:sp|P46881.1|PAOX_ARTGO'
p55
I638
sS'1IVV:sp|P46881.1|PAOX_ARTGO'
p56
I638
sS'4BTW:sp|Q16853.3|AOC3_HUMAN'
p57
I763
sS'1W5Z:sp|P46881.1|PAOX_ARTGO'
p58
I638
sS'1IU7:sp|P46881.1|PAOX_ARTGO'
p59
I638
sS'4KFF:sp|P12807.1|AMO_PICAN'
p60
I692
sS'3X40:sp|P46881.1|PAOX_ARTGO'
p61
I638
sS'3X42:sp|P46881.1|PAOX_ARTGO'
p62
I638
sS'1WMP:sp|P46881.1|PAOX_ARTGO'
p63
I638
sS'2ZL8:sp|P46881.1|PAOX_ARTGO'
p64
I638
sS'1IVW:sp|P46881.1|PAOX_ARTGO'
p65
I638
sS'2YX9:sp|P46881.1|PAOX_ARTGO'
p66
I638
sS'2CWV:sp|P46881.1|PAOX_ARTGO'
p67
I638
sS'1IQY:sp|P46881.1|PAOX_ARTGO'
p68
I638
sS'1A2V:sp|P12807.1|AMO_PICAN'
p69
I692
sS'2C11:sp|P08683.1|CP2CB_RAT'
p70
I500
sS'2CFG:sp|P46881.1|PAOX_ARTGO'
p71
I638
sS'3WA3:sp|P46881.1|PAOX_ARTGO'
p72
I638
sS'1OAC:sp|P46883.1|AMO_ECOLI'
p73
I757
sS'3NBB:sp|P12807.1|AMO_PICAN'
p74
I692
sS'3HII:pdb|3HII|B'
p75
I731
sS'4KFE:sp|P12807.1|AMO_PICAN'
p76
I692
sS'3T0U:sp|P12807.1|AMO_PICAN'
p77
I692
sS'1IVU:sp|P46881.1|PAOX_ARTGO'
p78
I638
sS'4BTX:sp|Q16853.3|AOC3_HUMAN'
p79
I763
sS'1UI7:sp|P46881.1|PAOX_ARTGO'
p80
I638
sS'1WMO:sp|P46881.1|PAOX_ARTGO'
p81
I638
sS'3X3X:sp|P46881.1|PAOX_ARTGO'
p82
I638
sS'2W0Q:sp|P46883.1|AMO_ECOLI'
p83
I757
sS'3X41:sp|P46881.1|PAOX_ARTGO'
p84
I638
sS'2WOH:sp|P46883.1|AMO_ECOLI'
p85
I757
sS'1EKM:sp|P12807.1|AMO_PICAN'
p86
I692
sS'1UI8:sp|P46881.1|PAOX_ARTGO'
p87
I638
sS'2CFK:sp|P46881.1|PAOX_ARTGO'
p88
I638
sS'2CWU:sp|P46881.1|PAOX_ARTGO'
p89
I638
sS'2WO0:sp|P46883.1|AMO_ECOLI'
p90
I757
sS'1W2Z:sp|Q43077.1|AMO_PEA'
p91
I674
sS'2WGQ:sp|P46883.1|AMO_ECOLI'
p92
I757
sS'1IVX:sp|P46881.1|PAOX_ARTGO'
p93
I638
sS'1SII:pdb|1SII|A'
p94
I646
sS'1D6Z:sp|P46883.1|AMO_ECOLI'
p95
I757
sS'3AMO:pdb|3AMO|B'
p96
I638
sS'1D6Y:sp|P46883.1|AMO_ECOLI'
p97
I757
sS'3SX1:sp|P12807.1|AMO_PICAN'
p98
I692
sS'4EV2:sp|P12807.1|AMO_PICAN'
p99
I692
sS'1DYU:sp|P46883.1|AMO_ECOLI'
p100
I757
sS'2OOV:sp|P12807.1|AMO_PICAN'
p101
I692
s.