(dp1
S'4V74:sp|P0AG44.1|RL17_ECOLI'
p2
I127
sS'4V9P:sp|P0AG44.1|RL17_ECOLI'
p3
I127
sS'4V49:sp|Q9RY64.2|RL21_DEIRA'
p4
I100
sS'4V47:sp|P0AG44.1|RL17_ECOLI'
p5
I127
sS'1K73:sp|P12734.2|RL21_HALMA'
p6
I96
sS'4V4A:sp|Q9RY64.2|RL21_DEIRA'
p7
I100
sS'3CME:sp|P12734.2|RL21_HALMA'
p8
I96
sS'4Z8C:sp|Q5SHZ1.1|RL25_THET8'
p9
I206
sS'4V6A:sp|Q5SHZ1.1|RL25_THET8'
p10
I206
sS'3J7Q:sp|A1XQU5.1|RL27_PIG'
p11
I136
sS'4V5C:sp|Q5SHZ1.1|RL25_THET8'
p12
I206
sS'4V85:sp|P0A7I4.2|RF3_ECOLI'
p13
I529
sS'4V6N:sp|P0AG44.1|RL17_ECOLI'
p14
I127
sS'4V6D:sp|P0AG44.1|RL17_ECOLI'
p15
I127
sS'4V4G:sp|Q9RY64.2|RL21_DEIRA'
p16
I100
sS'4L47:sp|Q5SHZ1.1|RL25_THET8'
p17
I206
sS'4Y4O:sp|Q5SHZ1.1|RL25_THET8'
p18
I206
sS'4V9R:sp|Q5SHZ1.1|RL25_THET8'
p19
I206
sS'3JBN:sp|O96184.1|RL37A_PLAF7'
p20
I96
sS'1YJW:sp|P12734.2|RL21_HALMA'
p21
I96
sS'4U27:sp|P0AG44.1|RL17_ECOLI'
p22
I127
sS'4TUA:sp|Q5SHZ1.1|RL25_THET8'
p23
I206
sS'4V7H:sp|P0CX29.1|RS23A_YEAST'
p24
I145
sS'3J77:sp|P0CX37.1|RS6A_YEAST'
p25
I236
sS'4V8Y:sp|P0CX37.1|RS6A_YEAST'
p26
I236
sS'4V7P:sp|Q72I05.1|RL4_THET2'
p27
I205
sS'4U4N:sp|P0CX37.1|RS6A_YEAST'
p28
I236
sS'1VY7:sp|Q5SHZ1.1|RL25_THET8'
p29
I206
sS'4V52:sp|P0AG44.1|RL17_ECOLI'
p30
I127
sS'4WQR:sp|Q5SHZ1.1|RL25_THET8'
p31
I206
sS'1YHQ:sp|P12734.2|RL21_HALMA'
p32
I96
sS'4V9K:sp|Q72I05.1|RL4_THET2'
p33
I205
sS'4V6Y:sp|P0AG44.1|RL17_ECOLI'
p34
I127
sS'4V6F:sp|Q5SHZ1.1|RL25_THET8'
p35
I206
sS'3CCQ:sp|P12734.2|RL21_HALMA'
p36
I96
sS'4V5E:sp|Q5SHZ1.1|RL25_THET8'
p37
I206
sS'3JBO:sp|O96184.1|RL37A_PLAF7'
p38
I96
sS'2UXO:sp|Q9AIU0.1|TTGR_PSEPT'
p39
I210
sS'4V7R:sp|P0CX55.1|RS18A_YEAST'
p40
I146
sS'3OW2:sp|P12734.2|RL21_HALMA'
p41
I96
sS'4V5G:sp|Q5SHZ1.1|RL25_THET8'
p42
I206
sS'5AJ4:sp|Q767K8.1|RT18B_PIG'
p43
I258
sS'4U3N:sp|P0CX37.1|RS6A_YEAST'
p44
I236
sS'1RPW:sp|P0A0N4.1|QACR_STAAU'
p45
I188
sS'4V89:sp|P0A7I4.2|RF3_ECOLI'
p46
I529
sS'4U4Y:sp|P0CX37.1|RS6A_YEAST'
p47
I236
sS'4KZZ:sp|P47813.2|IF1AX_HUMAN'
p48
I144
sS'3J7A:sp|Q8IJD4.1|RSSA_PLAF7'
p49
I263
sS'4WQF:sp|A0A0N0BLS5.1|RS17_THEAQ'
p50
I105
sS'4V91:sp|P0CX41.1|RL23A_YEAST'
p51
I137
sS'4V9F:sp|P12734.2|RL21_HALMA'
p52
I96
sS'3G71:sp|P12734.2|RL21_HALMA'
p53
I96
sS'4V7T:sp|P0AG44.1|RL17_ECOLI'
p54
I127
sS'4CE4:pdb|4CE4|Y'
p55
I216
sS'1Q82:sp|P12734.2|RL21_HALMA'
p56
I96
sS'1K9M:sp|P12734.2|RL21_HALMA'
p57
I96
sS'4V5Z:sp|Q5TJE9.3|RS18_CANLF'
p58
I152
sS'3CC2:sp|P12734.2|RL21_HALMA'
p59
I96
sS'4LNT:sp|Q5SHZ1.1|RL25_THET8'
p60
I206
sS'4W29:sp|Q72I05.1|RL4_THET2'
p61
I205
sS'4V5R:sp|Q5SHZ1.1|RL25_THET8'
p62
I206
sS'4V53:sp|P0AG44.1|RL17_ECOLI'
p63
I127
sS'5AJ0:sp|P63173.2|RL38_HUMAN'
p64
I70
sS'3CCU:sp|P12734.2|RL21_HALMA'
p65
I96
sS'4V6W:sp|O16130.2|RL39_DROME'
p66
I51
sS'4V6X:sp|P63173.2|RL38_HUMAN'
p67
I70
sS'4V66:sp|P0AG44.1|RL17_ECOLI'
p68
I127
sS'3CC4:sp|P12734.2|RL21_HALMA'
p69
I96
sS'4WWW:sp|P0AG44.1|RL17_ECOLI'
p70
I127
sS'4V6T:sp|P0AG44.1|RL17_ECOLI'
p71
I127
sS'4V6S:sp|P0AG44.1|RL17_ECOLI'
p72
I127
sS'4V6M:sp|P06136.1|FTSQ_ECOLI'
p73
I276
sS'4V6I:sp|P0CX55.1|RS18A_YEAST'
p74
I146
sS'4V9C:sp|P0AG44.1|RL17_ECOLI'
p75
I127
sS'1NPR:sp|O67757.1|NUSG_AQUAE'
p76
I248
sS'4V5K:sp|Q5SHZ1.1|RL25_THET8'
p77
I206
sS'4V75:sp|P0AG44.1|RL17_ECOLI'
p78
I127
sS'4U4Z:sp|P0CX37.1|RS6A_YEAST'
p79
I236
sS'2UXH:sp|Q9AIU0.1|TTGR_PSEPT'
p80
I210
sS'4V4H:sp|P0AG44.1|RL17_ECOLI'
p81
I127
sS'3VOK:pdb|3VOK|A'
p82
I189
sS'4V51:sp|Q5SHZ1.1|RL25_THET8'
p83
I206
sS'4V64:sp|P0AG44.1|RL17_ECOLI'
p84
I127
sS'4TUE:sp|Q5SHZ1.1|RL25_THET8'
p85
I206
sS'4V5H:sp|P0AG44.1|RL17_ECOLI'
p86
I127
sS'4V8G:sp|Q5SHZ1.1|RL25_THET8'
p87
I206
sS'4W2F:sp|Q5SHZ1.1|RL25_THET8'
p88
I206
sS'2QA4:sp|P12734.2|RL21_HALMA'
p89
I96
sS'1NZ9:sp|P35872.1|NUSG_THET8'
p90
I184
sS'4V4Z:sp|Q5SHZ1.1|RL25_THET8'
p91
I206
sS'4U50:sp|P0CX37.1|RS6A_YEAST'
p92
I236
sS'4ADX:sp|P12734.2|RL21_HALMA'
p93
I96
sS'4V57:sp|P0AG44.1|RL17_ECOLI'
p94
I127
sS'4V9A:sp|Q5SHZ1.1|RL25_THET8'
p95
I206
sS'4LSK:sp|Q5SHZ1.1|RL25_THET8'
p96
I206
sS'4V92:sp|P0CX37.1|RS6A_YEAST'
p97
I236
sS'2WW9:sp|P05743.3|RL26A_YEAST'
p98
I127
sS'1NWY:sp|Q9RY64.2|RL21_DEIRA'
p99
I100
sS'4KZY:sp|P47813.2|IF1AX_HUMAN'
p100
I144
sS'4U51:sp|P0CX37.1|RS6A_YEAST'
p101
I236
sS'4V56:sp|P0AG44.1|RL17_ECOLI'
p102
I127
sS'5ADY:sp|P0AG44.1|RL17_ECOLI'
p103
I127
sS'4U24:sp|P0AG44.1|RL17_ECOLI'
p104
I127
sS'2ZJP:sp|Q9RY64.2|RL21_DEIRA'
p105
I100
sS'4V7L:sp|Q5SHZ1.1|RL25_THET8'
p106
I206
sS'4W2G:sp|Q5SHZ1.1|RL25_THET8'
p107
I206
sS'1YJN:sp|P12734.2|RL21_HALMA'
p108
I96
sS'3DLL:sp|Q9RY64.2|RL21_DEIRA'
p109
I100
sS'4V7F:sp|P0CX41.1|RL23A_YEAST'
p110
I137
sS'4V7B:sp|P0AG44.1|RL17_ECOLI'
p111
I127
sS'1M90:sp|P12734.2|RL21_HALMA'
p112
I96
sS'1FFK:sp|P12734.2|RL21_HALMA'
p113
I96
sS'4V5M:sp|Q5SHZ1.1|RL25_THET8'
p114
I206
sS'4UJC:sp|P62975.1|UBIQ_RABIT'
p115
I76
sS'4V88:sp|P0CX37.1|RS6A_YEAST'
p116
I236
sS'4V8U:sp|Q5SHZ1.1|RL25_THET8'
p117
I206
sS'3CF5:sp|P0C8P8.2|THCL_STRAJ'
p118
I72
sS'4V70:sp|P0AG44.1|RL17_ECOLI'
p119
I127
sS'4V4X:sp|Q5SHZ1.1|RL25_THET8'
p120
I206
sS'1NPP:sp|O67757.1|NUSG_AQUAE'
p121
I248
sS'1NWX:sp|Q9RY64.2|RL21_DEIRA'
p122
I100
sS'3G6E:sp|P12734.2|RL21_HALMA'
p123
I96
sS'4U56:sp|P0CX37.1|RS6A_YEAST'
p124
I236
sS'4LFZ:sp|Q5SHZ1.1|RL25_THET8'
p125
I206
sS'3I56:sp|P12734.2|RL21_HALMA'
p126
I96
sS'2X9D:sp|P0ACT4.2|TETR4_ECOLX'
p127
I218
sS'5A2Q:sp|P62269.3|RS18_HUMAN'
p128
I152
sS'4B3A:sp|P0ACT4.2|TETR4_ECOLX'
p129
I218
sS'1VVJ:sp|Q5SHZ1.1|RL25_THET8'
p130
I206
sS'4V72:sp|P0AG44.1|RL17_ECOLI'
p131
I127
sS'3CCV:sp|P12734.2|RL21_HALMA'
p132
I96
sS'4V9M:sp|Q72I05.1|RL4_THET2'
p133
I205
sS'4V71:sp|P0AG44.1|RL17_ECOLI'
p134
I127
sS'4V87:sp|Q5SHZ1.1|RL25_THET8'
p135
I206
sS'4W2I:sp|Q5SHZ1.1|RL25_THET8'
p136
I206
sS'4IOC:sp|Q9RY64.2|RL21_DEIRA'
p137
I100
sS'4U3U:sp|P0CX37.1|RS6A_YEAST'
p138
I236
sS'5AKA:sp|P0AGD7.1|SRP54_ECOLI'
p139
I453
sS'3PIP:sp|Q9RY64.2|RL21_DEIRA'
p140
I100
sS'2QEX:sp|P12734.2|RL21_HALMA'
p141
I96
sS'4W2H:sp|Q5SHZ1.1|RL25_THET8'
p142
I206
sS'4V4S:sp|Q5SLP8.1|RS6_THET8'
p143
I101
sS'2RDO:sp|P0AG44.1|RL17_ECOLI'
p144
I127
sS'3J8G:sp|P0AG44.1|RL17_ECOLI'
p145
I127
sS'4UG0:sp|P63173.2|RL38_HUMAN'
p146
I70
sS'3CMA:sp|P12734.2|RL21_HALMA'
p147
I96
sS'4V6Z:sp|P0AG44.1|RL17_ECOLI'
p148
I127
sS'4V90:sp|Q5SHZ1.1|RL25_THET8'
p149
I206
sS'1Q7Y:sp|P12734.2|RL21_HALMA'
p150
I96
sS'3PIO:sp|Q9RY64.2|RL21_DEIRA'
p151
I100
sS'4V73:sp|P0AG44.1|RL17_ECOLI'
p152
I127
sS'4V7U:sp|P0AG44.1|RL17_ECOLI'
p153
I127
sS'4V8P:sp|Q23F79.2|RL26_TETTS'
p154
I135
sS'3J7O:sp|A1XQU5.1|RL27_PIG'
p155
I136
sS'4V79:sp|P0AG44.1|RL17_ECOLI'
p156
I127
sS'3J6Y:sp|P0CX37.1|RS6A_YEAST'
p157
I236
sS'3J81:sp|P32481.1|IF2G_YEAST'
p158
I527
sS'1Q81:sp|P12734.2|RL21_HALMA'
p159
I96
sS'4D61:sp|P62495.3|ERF1_HUMAN'
p160
I437
sS'4U6F:sp|P0CX37.1|RS6A_YEAST'
p161
I236
sS'4UER:pdb|4UER|CC'
p162
I812
sS'4V8Q:sp|Q5SHZ1.1|RL25_THET8'
p163
I206
sS'1QVF:sp|P12734.2|RL21_HALMA'
p164
I96
sS'4WF1:sp|P0AG44.1|RL17_ECOLI'
p165
I127
sS'1VY5:sp|Q5SHZ1.1|RL25_THET8'
p166
I206
sS'3J46:sp|P0AGA2.1|SECY_ECOLI'
p167
I443
sS'1YIJ:sp|P12734.2|RL21_HALMA'
p168
I96
sS'3CCJ:sp|P12734.2|RL21_HALMA'
p169
I96
sS'3BTI:sp|P0A0N3.1|QACR_STAAM'
p170
I188
sS'4V5D:sp|Q5SHZ1.1|RL25_THET8'
p171
I206
sS'4WOI:sp|P0AG44.1|RL17_ECOLI'
p172
I127
sS'3J92:sp|O94822.6|LTN1_HUMAN'
p173
I1766
sS'4V4R:sp|Q5SLP8.1|RS6_THET8'
p174
I101
sS'4YBB:sp|P0AG44.1|RL17_ECOLI'
p175
I127
sS'1VY6:sp|Q5SHZ1.1|RL25_THET8'
p176
I206
sS'4V7E:sp|Q5I7K9.2|RL30_WHEAT'
p177
I112
sS'4V48:sp|P0AG44.1|RL17_ECOLI'
p178
I127
sS'4V7X:sp|Q5SHZ1.1|RL25_THET8'
p179
I206
sS'3J7Z:sp|P0AG44.1|RL17_ECOLI'
p180
I127
sS'4V4Q:sp|P0AG44.1|RL17_ECOLI'
p181
I127
sS'4V19:pdb|4V19|Y'
p182
I216
sS'4W2E:sp|A0A0N0BLS5.1|RS17_THEAQ'
p183
I105
sS'4V7C:sp|P0AG44.1|RL17_ECOLI'
p184
I127
sS'4Y4P:sp|Q5SHZ1.1|RL25_THET8'
p185
I206
sS'4V9S:sp|Q5SHZ1.1|RL25_THET8'
p186
I206
sS'4YTL:sp|P27692.1|SPT5_YEAST'
p187
I1063
sS'3J7R:sp|A1XQU5.1|RL27_PIG'
p188
I136
sS'4V7J:sp|Q5SHZ1.1|RL25_THET8'
p189
I206
sS'4V8X:sp|Q5SHZ1.1|RL25_THET8'
p190
I206
sS'4WZO:sp|Q5SHZ1.1|RL25_THET8'
p191
I206
sS'4V9D:sp|P0AG44.1|RL17_ECOLI'
p192
I127
sS'4V4N:sp|Q8U3S6.1|RL39_PYRFU'
p193
I51
sS'4WU1:sp|Q5SHZ1.1|RL25_THET8'
p194
I206
sS'4V8E:sp|Q5SHZ1.1|RL25_THET8'
p195
I206
sS'4V69:sp|P0CE48.1|EFTU2_ECOLI'
p196
I394
sS'4V8Z:sp|P0CX37.1|RS6A_YEAST'
p197
I236
sS'4V61:sp|P22798.3|RK15_SPIOL'
p198
I271
sS'3J3V:sp|P42920.2|RL3_BACSU'
p199
I209
sS'4CSU:sp|P0AG44.1|RL17_ECOLI'
p200
I127
sS'3JAI:sp|P62495.3|ERF1_HUMAN'
p201
I437
sS'4V4I:sp|Q72I05.1|RL4_THET2'
p202
I205
sS'4V4B:sp|P0CX55.1|RS18A_YEAST'
p203
I146
sS'4V5L:sp|Q5SHZ1.1|RL25_THET8'
p204
I206
sS'4U3M:sp|P0CX37.1|RS6A_YEAST'
p205
I236
sS'3J78:sp|P0CX37.1|RS6A_YEAST'
p206
I236
sS'4V8F:sp|Q5SHZ1.1|RL25_THET8'
p207
I206
sS'2ZJQ:sp|Q9RY64.2|RL21_DEIRA'
p208
I100
sS'3J9Y:sp|P21598.1|TET9_ENTFL'
p209
I639
sS'3P8B:sp|Q8TZK1.1|SPT5_PYRFU'
p210
I152
sS'4TUB:sp|Q5SHZ1.1|RL25_THET8'
p211
I206
sS'2ZJR:sp|Q9RY64.2|RL21_DEIRA'
p212
I100
sS'4V67:sp|Q72I05.1|RL4_THET2'
p213
I205
sS'4U67:sp|Q9RY64.2|RL21_DEIRA'
p214
I100
sS'4V6K:sp|P0CE48.1|EFTU2_ECOLI'
p215
I394
sS'4V9I:sp|Q5SHZ1.1|RL25_THET8'
p216
I206
sS'1K8A:sp|P12734.2|RL21_HALMA'
p217
I96
sS'1W2B:sp|P0A850.1|TIG_ECOLI'
p218
I432
sS'4P6F:sp|Q5SHZ1.1|RL25_THET8'
p219
I206
sS'3J45:sp|P0AGA2.1|SECY_ECOLI'
p220
I443
sS'1SM1:sp|Q9RY64.2|RL21_DEIRA'
p221
I100
sS'4V50:sp|P0AG44.1|RL17_ECOLI'
p222
I127
sS'4V6P:sp|P0AG44.1|RL17_ECOLI'
p223
I127
sS'4D5L:pdb|4D5L|GG'
p224
I317
sS'2OTL:sp|P12734.2|RL21_HALMA'
p225
I96
sS'4U4O:sp|P0CX37.1|RS6A_YEAST'
p226
I236
sS'4U52:sp|P0CX37.1|RS6A_YEAST'
p227
I236
sS'4V5N:sp|Q5SHZ1.1|RL25_THET8'
p228
I206
sS'4V7V:sp|P0AG44.1|RL17_ECOLI'
p229
I127
sS'4V42:sp|Q5SHZ1.1|RL25_THET8'
p230
I206
sS'3Q3S:sp|P9WMC1.1|ETHR_MYCTU'
p231
I216
sS'4IOA:sp|Q9RY64.2|RL21_DEIRA'
p232
I100
sS'2JVV:sp|P0AFG0.2|NUSG_ECOLI'
p233
I181
sS'4IO9:sp|Q9RY64.2|RL21_DEIRA'
p234
I100
sS'4U26:sp|P0AG44.1|RL17_ECOLI'
p235
I127
sS'4U1V:sp|P0AG44.1|RL17_ECOLI'
p236
I127
sS'4V9H:sp|Q5SHZ1.1|RL25_THET8'
p237
I206
sS'4V7D:sp|P0AG44.1|RL17_ECOLI'
p238
I127
sS'4Z3S:sp|Q5SHZ1.1|RL25_THET8'
p239
I206
sS'4V6V:sp|P10952.2|TETO_CAMJU'
p240
I639
sS'3J9M:sp|Q96EY7.3|PTCD3_HUMAN'
p241
I689
sS'4LEL:sp|Q5SHZ1.1|RL25_THET8'
p242
I206
sS'4V6U:sp|Q8U3S6.1|RL39_PYRFU'
p243
I51
sS'4V9Q:sp|Q72I05.1|RL4_THET2'
p244
I205
sS'3CCM:sp|P12734.2|RL21_HALMA'
p245
I96
sS'4UJE:sp|P62975.1|UBIQ_RABIT'
p246
I76
sS'4V6G:sp|Q5SHZ1.1|RL25_THET8'
p247
I206
sS'4WF9:sp|Q2FJE0.1|RL25_STAA3'
p248
I217
sS'3J80:sp|P0CX86.1|RL41A_YEAST'
p249
I25
sS'3CCR:sp|P12734.2|RL21_HALMA'
p250
I96
sS'4V5Y:sp|P0AG44.1|RL17_ECOLI'
p251
I127
sS'4V5J:sp|Q5SHZ1.1|RL25_THET8'
p252
I206
sS'2D3O:sp|Q9RT21.3|TIG_DEIRA'
p253
I465
sS'3CCS:sp|P12734.2|RL21_HALMA'
p254
I96
sS'4V5P:sp|Q5SHZ1.1|RL25_THET8'
p255
I206
sS'2LQ8:sp|P29397.1|NUSG_THEMA'
p256
I353
sS'4U55:sp|P0CX37.1|RS6A_YEAST'
p257
I236
sS'4V4Y:sp|Q5SHZ1.1|RL25_THET8'
p258
I206
sS'4V54:sp|P0AG44.1|RL17_ECOLI'
p259
I127
sS'4UJD:sp|P62975.1|UBIQ_RABIT'
p260
I76
sS'2QIB:AGK80014.1'
p261
I263
sS'4V76:sp|P0AG44.1|RL17_ECOLI'
p262
I127
sS'4V7W:sp|Q5SHZ1.1|RL25_THET8'
p263
I206
sS'4V7I:sp|P0AG44.1|RL17_ECOLI'
p264
I127
sS'3JAG:sp|P62495.3|ERF1_HUMAN'
p265
I437
sS'4TUC:sp|Q5SHZ1.1|RL25_THET8'
p266
I206
sS'4V6L:sp|P0CE48.1|EFTU2_ECOLI'
p267
I394
sS'4V8B:sp|Q5SHZ1.1|RL25_THET8'
p268
I206
sS'2VRH:sp|P0A850.1|TIG_ECOLI'
p269
I432
sS'4V5Q:sp|Q5SHZ1.1|RL25_THET8'
p270
I206
sS'4WR6:sp|Q5SHZ1.1|RL25_THET8'
p271
I206
sS'4V4J:sp|Q72I05.1|RL4_THET2'
p272
I205
sS'4WRA:sp|Q5SHZ1.1|RL25_THET8'
p273
I206
sS'1NJI:sp|P12734.2|RL21_HALMA'
p274
I96
sS'3J79:sp|O96184.1|RL37A_PLAF7'
p275
I96
sS'1KQS:sp|P12734.2|RL21_HALMA'
p276
I96
sS'4V63:sp|Q72I05.1|RL4_THET2'
p277
I205
sS'3J6X:sp|P0CX37.1|RS6A_YEAST'
p278
I236
sS'4P70:sp|Q5SHZ1.1|RL25_THET8'
p279
I206
sS'3JAP:sp|P40217.1|EIF3I_YEAST'
p280
I347
sS'4V9J:sp|Q72I05.1|RL4_THET2'
p281
I205
sS'4V77:sp|P0AG44.1|RL17_ECOLI'
p282
I127
sS'3CCE:sp|P12734.2|RL21_HALMA'
p283
I96
sS'3CXC:sp|P12734.2|RL21_HALMA'
p284
I96
sS'4V4V:sp|P0AG44.1|RL17_ECOLI'
p285
I127
sS'1Q86:sp|P12734.2|RL21_HALMA'
p286
I96
sS'4V9N:sp|Q72I05.1|RL4_THET2'
p287
I205
sS'4L71:sp|Q5SHZ1.1|RL25_THET8'
p288
I206
sS'2WWB:sp|P05743.3|RL26A_YEAST'
p289
I127
sS'2WWA:sp|P05743.3|RL26A_YEAST'
p290
I127
sS'3J9Z:sp|P0AG44.1|RL17_ECOLI'
p291
I127
sS'4V4W:sp|P0AG44.1|RL17_ECOLI'
p292
I127
sS'4V95:sp|Q5SHZ1.1|RL25_THET8'
p293
I206
sS'2E70:sp|O00267.1|SPT5H_HUMAN'
p294
I1087
sS'4U4Q:sp|P0CX37.1|RS6A_YEAST'
p295
I236
sS'4V7Y:sp|Q5SHZ1.1|RL25_THET8'
p296
I206
sS'4V65:sp|P0AG44.1|RL17_ECOLI'
p297
I127
sS'1QVG:sp|P12734.2|RL21_HALMA'
p298
I96
sS'4V7S:sp|P0AG44.1|RL17_ECOLI'
p299
I127
sS'3J3W:sp|P42920.2|RL3_BACSU'
p300
I209
sS'4V4T:sp|Q9RY64.2|RL21_DEIRA'
p301
I100
sS'2OTJ:sp|P12734.2|RL21_HALMA'
p302
I96
sS'4WT1:sp|Q5SHZ1.1|RL25_THET8'
p303
I206
sS'4V68:sp|Q5SHZ1.1|RL25_THET8'
p304
I206
sS'3CD6:sp|P12734.2|RL21_HALMA'
p305
I96
sS'4V83:sp|Q72I05.1|RL4_THET2'
p306
I205
sS'4V7M:sp|Q5SHZ1.1|RL25_THET8'
p307
I206
sS'3CC7:sp|P12734.2|RL21_HALMA'
p308
I96
sS'2FTC:sp|A6QPQ5.1|RM01_BOVIN'
p309
I325
sS'4W4G:sp|Q7A225.1|HIGB_PROVU'
p310
I92
sS'2KVQ:sp|P0AFG0.2|NUSG_ECOLI'
p311
I181
sS'4U53:sp|P0CX37.1|RS6A_YEAST'
p312
I236
sS'3JA1:sp|P0AG44.1|RL17_ECOLI'
p313
I127
sS'4V5F:sp|Q5SHZ1.1|RL25_THET8'
p314
I206
sS'4V4P:sp|Q5SHN9.1|RL4_THET8'
p315
I210
sS'4V6C:sp|P0AG44.1|RL17_ECOLI'
p316
I127
sS'2XHC:sp|P29397.1|NUSG_THEMA'
p317
I353
sS'4V5A:sp|Q5SHZ1.1|RL25_THET8'
p318
I206
sS'4WFA:sp|Q2FJE0.1|RL25_STAA3'
p319
I217
sS'4V84:sp|Q72I05.1|RL4_THET2'
p320
I205
sS'4V9B:sp|Q5SHZ1.1|RL25_THET8'
p321
I206
sS'4XEJ:sp|Q72I05.1|RL4_THET2'
p322
I205
sS'4LT8:sp|Q5SHZ1.1|RL25_THET8'
p323
I206
sS'3JAH:sp|P62495.3|ERF1_HUMAN'
p324
I437
sS'4WZD:sp|Q5SHZ1.1|RL25_THET8'
p325
I206
sS'4V7Z:sp|Q5SHZ1.1|RL25_THET8'
p326
I206
sS'1M1K:sp|P12734.2|RL21_HALMA'
p327
I96
sS'4V5B:sp|P0AG44.1|RL17_ECOLI'
p328
I127
sS'4V7K:sp|A0A0N0BLS5.1|RS17_THEAQ'
p329
I105
sS'3J7Y:sp|Q9NYK5.3|RM39_HUMAN'
p330
I338
sS'3BBX:sp|P0AG44.1|RL17_ECOLI'
p331
I127
sS'4V8T:sp|P0CX41.1|RL23A_YEAST'
p332
I137
sS'4U4U:sp|P0CX37.1|RS6A_YEAST'
p333
I236
sS'1VY4:sp|Q5SHZ1.1|RL25_THET8'
p334
I206
sS'1ML5:sp|P0ADZ0.1|RL23_ECOLI'
p335
I100
sS'2DO3:sp|O00267.1|SPT5H_HUMAN'
p336
I1087
sS'4WQU:sp|A0A0N0BLS5.1|RS17_THEAQ'
p337
I105
sS'4V5S:sp|Q5SHZ1.1|RL25_THET8'
p338
I206
sS'3JAQ:sp|P40217.1|EIF3I_YEAST'
p339
I347
sS'4V6E:sp|P0AG44.1|RL17_ECOLI'
p340
I127
sS'4KZX:sp|P41567.1|EIF1_HUMAN'
p341
I113
sS'3CCL:sp|P12734.2|RL21_HALMA'
p342
I96
sS'4TUD:sp|Q5SHZ1.1|RL25_THET8'
p343
I206
sS'3JAM:sp|P0CX86.1|RL41A_YEAST'
p344
I25
sS'1YJ9:sp|P12734.2|RL21_HALMA'
p345
I96
sS'4U4R:sp|P0CX37.1|RS6A_YEAST'
p346
I236
sS'1YIT:sp|P12734.2|RL21_HALMA'
p347
I96
sS'4WQY:sp|A0A0N0BLS5.1|RS17_THEAQ'
p348
I105
sS'3JBP:sp|O96184.1|RL37A_PLAF7'
p349
I96
sS'4V55:sp|P0AG44.1|RL17_ECOLI'
p350
I127
sS'3J7P:sp|A1XQU5.1|RL27_PIG'
p351
I136
sS'4V7A:sp|P0AG44.1|RL17_ECOLI'
p352
I127
sS'4V8D:sp|Q5SHZ1.1|RL25_THET8'
p353
I206
sS'3I55:sp|P12734.2|RL21_HALMA'
p354
I96
sS'4WSM:sp|Q5SHZ1.1|RL25_THET8'
p355
I206
sS'4U1U:sp|P0AG44.1|RL17_ECOLI'
p356
I127
sS'1N8R:sp|P12734.2|RL21_HALMA'
p357
I96
sS'4WFB:sp|Q2FJE0.1|RL25_STAA3'
p358
I217
sS'4V97:sp|Q5SHZ1.1|RL25_THET8'
p359
I206
sS'4YPB:sp|Q7A225.1|HIGB_PROVU'
p360
I92
sS'3IY9:sp|Q2YDI0.2|RM11_BOVIN'
p361
I192
sS'1S72:sp|P12734.2|RL21_HALMA'
p362
I96
sS'4WRO:sp|Q5SHZ1.1|RL25_THET8'
p363
I206
sS'4V6R:sp|P0AG44.1|RL17_ECOLI'
p364
I127
sS'3J9W:sp|P42920.2|RL3_BACSU'
p365
I209
sS'4U20:sp|P0AG44.1|RL17_ECOLI'
p366
I127
sS'4V9L:sp|Q72I05.1|RL4_THET2'
p367
I205
sS'4V3P:sp|Q5I7K9.2|RL30_WHEAT'
p368
I112
sS'4WCE:sp|Q2FJE0.1|RL25_STAA3'
p369
I217
sS'1KC8:sp|P12734.2|RL21_HALMA'
p370
I96
sS'4U25:sp|P0AG44.1|RL17_ECOLI'
p371
I127
sS'1KD1:sp|P12734.2|RL21_HALMA'
p372
I96
sS'4V78:sp|P0AG44.1|RL17_ECOLI'
p373
I127
s.