(dp1
S'3RIF:sp|G5EBR3.1|GLUCL_CAEEL'
p2
I461
sS'4BON:sp|P02711.1|ACHA_TORMA'
p3
I461
sS'3MRA:pdb|3MRA|'
p4
I25
sS'4X5T:sp|P23415.2|GLRA1_HUMAN'
p5
I457
sS'1VRY:sp|P23415.2|GLRA1_HUMAN'
p6
I457
sS'2M6I:sp|P23415.2|GLRA1_HUMAN'
p7
I457
sS'4PIR:sp|P23979.1|5HT3A_MOUSE'
p8
I487
sS'5CFB:sp|O75311.2|GLRA3_HUMAN'
p9
I464
sS'3JAE:sp|O93430.1|GLRA1_DANRE'
p10
I444
sS'2K58:sp|P17787.1|ACHB2_HUMAN'
p11
I502
sS'1DXZ:sp|P02710.1|ACHA_TETCF'
p12
I461
sS'2LLY:sp|P43681.2|ACHA4_HUMAN'
p13
I627
sS'4BOI:sp|P02711.1|ACHA_TORMA'
p14
I461
sS'2K59:sp|P17787.1|ACHB2_HUMAN'
p15
I502
sS'4TNV:sp|G5EBR3.1|GLUCL_CAEEL'
p16
I461
sS'4TNW:sp|G5EBR3.1|GLUCL_CAEEL'
p17
I461
sS'4BOR:sp|P02711.1|ACHA_TORMA'
p18
I461
sS'2BG9:sp|P02711.1|ACHA_TORMA'
p19
I461
sS'2MAW:sp|P36544.5|ACHA7_HUMAN'
p20
I502
sS'3JAD:sp|O93430.1|GLRA1_DANRE'
p21
I444
sS'4AQ9:sp|P02711.1|ACHA_TORMA'
p22
I461
sS'4BOG:sp|P02711.1|ACHA_TORMA'
p23
I461
sS'3RIA:sp|G5EBR3.1|GLUCL_CAEEL'
p24
I461
sS'3JAF:sp|O93430.1|GLRA1_DANRE'
p25
I444
sS'4BOT:sp|P02711.1|ACHA_TORMA'
p26
I461
sS'2M6B:sp|P23415.2|GLRA1_HUMAN'
p27
I457
sS'3RI5:sp|G5EBR3.1|GLUCL_CAEEL'
p28
I461
sS'1OED:sp|P02714.1|ACHG_TETCF'
p29
I506
sS'4BOO:sp|P02711.1|ACHA_TORMA'
p30
I461
sS'2KSR:sp|P17787.1|ACHB2_HUMAN'
p31
I502
sS'2LM2:sp|P17787.1|ACHB2_HUMAN'
p32
I502
sS'4AQ5:sp|P02711.1|ACHA_TORMA'
p33
I461
sS'4COF:sp|P28472.1|GBRB3_HUMAN'
p34
I473
sS'2LKH:pdb|2LKH|A'
p35
I140
sS'3RHW:sp|G5EBR3.1|GLUCL_CAEEL'
p36
I461
sS'2LKG:pdb|2LKG|A'
p37
I140
s.