(dp1
S'3VF9:sp|P43405.1|KSYK_HUMAN'
p2
I635
sS'3BKB:sp|P07332.3|FES_HUMAN'
p3
I822
sS'2Y4I:sp|P29678.2|MP2K1_RABIT'
p4
I393
sS'3TUD:sp|P43405.1|KSYK_HUMAN'
p5
I635
sS'2YHV:sp|Q9UM73.3|ALK_HUMAN'
p6
I1620
sS'1T46:sp|P10721.1|KIT_HUMAN'
p7
I976
sS'3CD8:sp|P08581.4|MET_HUMAN'
p8
I1390
sS'4E20:sp|Q9R117.2|TYK2_MOUSE'
p9
I1180
sS'3EYG:sp|P23458.2|JAK1_HUMAN'
p10
I1154
sS'2GS2:sp|P00533.2|EGFR_HUMAN'
p11
I1210
sS'2J5E:sp|P00533.2|EGFR_HUMAN'
p12
I1210
sS'3Q4C:sp|P15056.4|BRAF_HUMAN'
p13
I766
sS'4HCT:sp|Q08881.1|ITK_HUMAN'
p14
I620
sS'2JIU:sp|P00533.2|EGFR_HUMAN'
p15
I1210
sS'2VWZ:sp|P54760.2|EPHB4_HUMAN'
p16
I987
sS'3WZE:sp|P35968.2|VGFR2_HUMAN'
p17
I1356
sS'4V8A:sp|Q5SHZ1.1|RL25_THET8'
p18
I206
sS'4UXQ:sp|P22455.2|FGFR4_HUMAN'
p19
I802
sS'4F0I:sp|P04629.4|NTRK1_HUMAN'
p20
I796
sS'2YFX:sp|Q9UM73.3|ALK_HUMAN'
p21
I1620
sS'2J0L:sp|Q00944.2|FAK1_CHICK'
p22
I1053
sS'3F3U:sp|P00523.4|SRC_CHICK'
p23
I533
sS'2OF2:sp|P06239.6|LCK_HUMAN'
p24
I509
sS'3U51:sp|P00523.4|SRC_CHICK'
p25
I533
sS'1RQQ:sp|P06213.4|INSR_HUMAN'
p26
I1382
sS'1VR2:sp|P35968.2|VGFR2_HUMAN'
p27
I1356
sS'3HNG:sp|P17948.2|VGFR1_HUMAN'
p28
I1338
sS'4LQM:sp|P00533.2|EGFR_HUMAN'
p29
I1210
sS'4D55:sp|Q00944.2|FAK1_CHICK'
p30
I1053
sS'4FOB:sp|Q9UM73.3|ALK_HUMAN'
p31
I1620
sS'4I1Z:sp|P00533.2|EGFR_HUMAN'
p32
I1210
sS'1QPD:sp|P06239.6|LCK_HUMAN'
p33
I509
sS'4FL1:sp|P43405.1|KSYK_HUMAN'
p34
I635
sS'1OEC:sp|P21802.1|FGFR2_HUMAN'
p35
I821
sS'4RIO:sp|P52333.2|JAK3_HUMAN'
p36
I1124
sS'4BBE:sp|O60674.2|JAK2_HUMAN'
p37
I1132
sS'5CAP:sp|P00533.2|EGFR_HUMAN'
p38
I1210
sS'4RWI:sp|P11362.3|FGFR1_HUMAN'
p39
I822
sS'4C3F:sp|P06239.6|LCK_HUMAN'
p40
I509
sS'4ZTN:sp|Q9NWZ3.1|IRAK4_HUMAN'
p41
I460
sS'4ZLZ:sp|Q06187.3|BTK_HUMAN'
p42
I659
sS'4MNE:sp|Q02750.2|MP2K1_HUMAN'
p43
I393
sS'3SKC:sp|P15056.4|BRAF_HUMAN'
p44
I766
sS'4WKQ:sp|P00533.2|EGFR_HUMAN'
p45
I1210
sS'3QLG:sp|P00523.4|SRC_CHICK'
p46
I533
sS'2J0M:sp|Q00944.2|FAK1_CHICK'
p47
I1053
sS'4UY8:sp|P0AG44.1|RL17_ECOLI'
p48
I127
sS'4FOD:sp|Q9UM73.3|ALK_HUMAN'
p49
I1620
sS'3D94:sp|P08069.1|IGF1R_HUMAN'
p50
I1367
sS'4E6D:sp|O60674.2|JAK2_HUMAN'
p51
I1132
sS'3LZB:sp|P00533.2|EGFR_HUMAN'
p52
I1210
sS'2ITX:sp|P00533.2|EGFR_HUMAN'
p53
I1210
sS'3II5:sp|P15056.4|BRAF_HUMAN'
p54
I766
sS'2GS6:sp|P00533.2|EGFR_HUMAN'
p55
I1210
sS'2REI:sp|Q15375.3|EPHA7_HUMAN'
p56
I998
sS'3W2Q:sp|P00533.2|EGFR_HUMAN'
p57
I1210
sS'3B8Q:sp|P35968.2|VGFR2_HUMAN'
p58
I1356
sS'4GVJ:sp|P29597.3|TYK2_HUMAN'
p59
I1187
sS'5AR2:sp|O43353.2|RIPK2_HUMAN'
p60
I540
sS'3LCO:sp|P07333.2|CSF1R_HUMAN'
p61
I972
sS'3EKN:sp|P06213.4|INSR_HUMAN'
p62
I1382
sS'3CCN:sp|P08581.4|MET_HUMAN'
p63
I1390
sS'3D7U:sp|P00523.4|SRC_CHICK'
p64
I533
sS'3LCK:pdb|3LCK|'
p65
I271
sS'4F1T:sp|Q6XHB2.1|ROCO4_DICDI'
p66
I1726
sS'4D0X:sp|O60674.2|JAK2_HUMAN'
p67
I1132
sS'4IBM:sp|P06213.4|INSR_HUMAN'
p68
I1382
sS'3FY2:sp|P29320.2|EPHA3_HUMAN'
p69
I983
sS'4NEU:sp|Q13546.3|RIPK1_HUMAN'
p70
I671
sS'4G9R:sp|P15056.4|BRAF_HUMAN'
p71
I766
sS'4RIW:sp|P00533.2|EGFR_HUMAN'
p72
I1210
sS'2W1I:sp|O60674.2|JAK2_HUMAN'
p73
I1132
sS'4G5J:sp|P00533.2|EGFR_HUMAN'
p74
I1210
sS'4GL9:sp|O35718.1|SOCS3_MOUSE'
p75
I895
sS'2JIV:sp|P00533.2|EGFR_HUMAN'
p76
I1210
sS'1JPA:sp|P54763.3|EPHB2_MOUSE'
p77
I986
sS'4O2P:sp|P00523.4|SRC_CHICK'
p78
I533
sS'2ITU:sp|P00533.2|EGFR_HUMAN'
p79
I1210
sS'1YI2:sp|P12734.2|RL21_HALMA'
p80
I96
sS'4E4N:sp|P23458.2|JAK1_HUMAN'
p81
I1154
sS'1R1W:sp|P08581.4|MET_HUMAN'
p82
I1390
sS'4YZN:sp|Q6XHB2.1|ROCO4_DICDI'
p83
I1726
sS'3C4F:sp|P11362.3|FGFR1_HUMAN'
p84
I822
sS'2WQB:sp|Q02763.2|TIE2_HUMAN'
p85
I1124
sS'3PPZ:sp|Q05609.1|CTR1_ARATH'
p86
I821
sS'2VWX:sp|P54760.2|EPHB4_HUMAN'
p87
I987
sS'3FQH:sp|P43405.1|KSYK_HUMAN'
p88
I635
sS'4EWH:sp|Q07912.3|ACK1_HUMAN'
p89
I1038
sS'3PRI:sp|P15056.4|BRAF_HUMAN'
p90
I766
sS'3ZZE:sp|P08581.4|MET_HUMAN'
p91
I1390
sS'4R3P:sp|P00533.2|EGFR_HUMAN'
p92
I1210
sS'3GVU:sp|P42684.1|ABL2_HUMAN'
p93
I1182
sS'1VQP:sp|P12734.2|RL21_HALMA'
p94
I96
sS'1VQ4:sp|P12734.2|RL21_HALMA'
p95
I96
sS'2HEN:sp|P54763.3|EPHB2_MOUSE'
p96
I986
sS'3KCK:sp|O60674.2|JAK2_HUMAN'
p97
I1132
sS'3F3V:sp|P00523.4|SRC_CHICK'
p98
I533
sS'4UWB:sp|P11362.3|FGFR1_HUMAN'
p99
I822
sS'3VS1:sp|P08631.5|HCK_HUMAN'
p100
I526
sS'4AOJ:sp|P04629.4|NTRK1_HUMAN'
p101
I796
sS'4MXC:sp|P08581.4|MET_HUMAN'
p102
I1390
sS'3EFK:sp|P08581.4|MET_HUMAN'
p103
I1390
sS'3RHX:sp|P11362.3|FGFR1_HUMAN'
p104
I822
sS'5BVO:sp|Q08345.1|DDR1_HUMAN'
p105
I913
sS'4OLI:sp|P29597.3|TYK2_HUMAN'
p106
I1187
sS'3ZXZ:sp|P08581.4|MET_HUMAN'
p107
I1390
sS'4QRC:sp|P22455.2|FGFR4_HUMAN'
p108
I802
sS'2WGJ:sp|P08581.4|MET_HUMAN'
p109
I1390
sS'1K2P:sp|Q06187.3|BTK_HUMAN'
p110
I659
sS'3VF8:sp|P43405.1|KSYK_HUMAN'
p111
I635
sS'4G2F:sp|P29320.2|EPHA3_HUMAN'
p112
I983
sS'3QRI:sp|P00519.4|ABL1_HUMAN'
p113
I1130
sS'3TZ8:sp|P00523.4|SRC_CHICK'
p114
I533
sS'4RJ6:sp|P00533.2|EGFR_HUMAN'
p115
I1210
sS'5BVW:sp|Q08345.1|DDR1_HUMAN'
p116
I913
sS'4FNY:sp|Q9UM73.3|ALK_HUMAN'
p117
I1620
sS'2OFV:sp|P06239.6|LCK_HUMAN'
p118
I509
sS'4CCU:sp|Q9UM73.3|ALK_HUMAN'
p119
I1620
sS'2XP2:sp|Q9UM73.3|ALK_HUMAN'
p120
I1620
sS'3V8W:sp|Q08881.1|ITK_HUMAN'
p121
I620
sS'5C03:sp|P29597.3|TYK2_HUMAN'
p122
I1187
sS'3TJD:sp|O60674.2|JAK2_HUMAN'
p123
I1132
sS'1VQK:sp|P12734.2|RL21_HALMA'
p124
I96
sS'3KXZ:sp|P06239.6|LCK_HUMAN'
p125
I509
sS'2QOC:sp|P29320.2|EPHA3_HUMAN'
p126
I983
sS'3PLS:sp|Q04912.2|RON_HUMAN'
p127
I1400
sS'3IO7:sp|O60674.2|JAK2_HUMAN'
p128
I1132
sS'4G5P:sp|P00533.2|EGFR_HUMAN'
p129
I1210
sS'3KEX:sp|P21860.1|ERBB3_HUMAN'
p130
I1342
sS'3U6H:sp|P08581.4|MET_HUMAN'
p131
I1390
sS'3TZ9:sp|P00523.4|SRC_CHICK'
p132
I533
sS'1VQN:sp|P12734.2|RL21_HALMA'
p133
I96
sS'3ZC6:sp|P52333.2|JAK3_HUMAN'
p134
I1124
sS'3FQS:sp|P43405.1|KSYK_HUMAN'
p135
I635
sS'2QOQ:sp|P29320.2|EPHA3_HUMAN'
p136
I983
sS'4BRX:sp|Q00944.2|FAK1_CHICK'
p137
I1053
sS'3ZZW:sp|Q01974.2|ROR2_HUMAN'
p138
I943
sS'4V04:sp|P11362.3|FGFR1_HUMAN'
p139
I822
sS'2QOD:sp|P29320.2|EPHA3_HUMAN'
p140
I983
sS'3PJ3:sp|Q06187.3|BTK_HUMAN'
p141
I659
sS'3KMM:sp|P06239.6|LCK_HUMAN'
p142
I509
sS'4RIX:sp|P00533.2|EGFR_HUMAN'
p143
I1210
sS'3U6I:sp|P08581.4|MET_HUMAN'
p144
I1390
sS'4I94:sp|Q9FHD7.1|Y5126_ARATH'
p145
I487
sS'2X2M:sp|P07949.3|RET_HUMAN'
p146
I1114
sS'4P7E:sp|O60674.2|JAK2_HUMAN'
p147
I1132
sS'3EYH:sp|P23458.2|JAK1_HUMAN'
p148
I1154
sS'4AT3:sp|Q16620.1|NTRK2_HUMAN'
p149
I822
sS'5CAS:sp|P00533.2|EGFR_HUMAN'
p150
I1210
sS'3DK6:sp|P00520.3|ABL1_MOUSE'
p151
I1123
sS'4PPC:sp|Q08881.1|ITK_HUMAN'
p152
I620
sS'4Y95:pdb|4Y95|D'
p153
I266
sS'3EQR:sp|Q07912.3|ACK1_HUMAN'
p154
I1038
sS'4XV9:sp|P15056.4|BRAF_HUMAN'
p155
I766
sS'4UYA:sp|Q5TCX8.2|M3K21_HUMAN'
p156
I1036
sS'4M14:sp|Q08881.1|ITK_HUMAN'
p157
I620
sS'3LXN:sp|P29597.3|TYK2_HUMAN'
p158
I1187
sS'3LXP:sp|P29597.3|TYK2_HUMAN'
p159
I1187
sS'1IEP:sp|P00520.3|ABL1_MOUSE'
p160
I1123
sS'4GFG:sp|P43405.1|KSYK_HUMAN'
p161
I635
sS'3ETA:NP_057254.1'
p162
I284
sS'2BDF:sp|P12931.3|SRC_HUMAN'
p163
I536
sS'3BBT:sp|Q15303.1|ERBB4_HUMAN'
p164
I1308
sS'4R3R:sp|P00533.2|EGFR_HUMAN'
p165
I1210
sS'4WA9:sp|P00519.4|ABL1_HUMAN'
p166
I1130
sS'4NK9:sp|P11362.3|FGFR1_HUMAN'
p167
I822
sS'5BVN:sp|Q08345.1|DDR1_HUMAN'
p168
I913
sS'1YWN:sp|P35968.2|VGFR2_HUMAN'
p169
I1356
sS'4TYJ:sp|P22455.2|FGFR4_HUMAN'
p170
I802
sS'4F65:sp|P11362.3|FGFR1_HUMAN'
p171
I822
sS'2ITO:sp|P00533.2|EGFR_HUMAN'
p172
I1210
sS'4HZS:sp|Q07912.3|ACK1_HUMAN'
p173
I1038
sS'4XMO:sp|P08581.4|MET_HUMAN'
p174
I1390
sS'3AD5:sp|P06239.6|LCK_HUMAN'
p175
I509
sS'4P5Z:sp|P29320.2|EPHA3_HUMAN'
p176
I983
sS'3QQU:sp|P08069.1|IGF1R_HUMAN'
p177
I1367
sS'4RG0:sp|Q06187.3|BTK_HUMAN'
p178
I659
sS'2QLQ:sp|P00523.4|SRC_CHICK'
p179
I533
sS'1JJ2:sp|P12734.2|RL21_HALMA'
p180
I96
sS'3PJ2:sp|Q06187.3|BTK_HUMAN'
p181
I659
sS'5CAN:sp|P00533.2|EGFR_HUMAN'
p182
I1210
sS'4WO5:sp|P15056.4|BRAF_HUMAN'
p183
I766
sS'2GS7:sp|P00533.2|EGFR_HUMAN'
p184
I1210
sS'5CF8:sp|O60674.2|JAK2_HUMAN'
p185
I1132
sS'2WKM:sp|P08581.4|MET_HUMAN'
p186
I1390
sS'4FZ6:sp|P43405.1|KSYK_HUMAN'
p187
I635
sS'3K54:sp|Q06187.3|BTK_HUMAN'
p188
I659
sS'4XLV:sp|P06213.4|INSR_HUMAN'
p189
I1382
sS'3VO3:sp|P35968.2|VGFR2_HUMAN'
p190
I1356
sS'4GT5:sp|P04629.4|NTRK1_HUMAN'
p191
I796
sS'3VW8:sp|P08581.4|MET_HUMAN'
p192
I1390
sS'4ID7:sp|Q07912.3|ACK1_HUMAN'
p193
I1038
sS'3EWH:sp|P35968.2|VGFR2_HUMAN'
p194
I1356
sS'4CTB:sp|Q9UM73.3|ALK_HUMAN'
p195
I1620
sS'1OPJ:sp|P00520.3|ABL1_MOUSE'
p196
I1123
sS'4GT4:sp|Q01974.2|ROR2_HUMAN'
p197
I943
sS'4GG5:sp|P08581.4|MET_HUMAN'
p198
I1390
sS'1XBC:sp|P43405.1|KSYK_HUMAN'
p199
I635
sS'1Y6A:sp|P35968.2|VGFR2_HUMAN'
p200
I1356
sS'1M14:sp|P00533.2|EGFR_HUMAN'
p201
I1210
sS'4DEI:sp|P08581.4|MET_HUMAN'
p202
I1390
sS'3TUB:sp|P43405.1|KSYK_HUMAN'
p203
I635
sS'3CC6:sp|Q14289.2|FAK2_HUMAN'
p204
I1009
sS'4HVD:sp|P52333.2|JAK3_HUMAN'
p205
I1124
sS'2RFD:sp|P00533.2|EGFR_HUMAN'
p206
I1210
sS'3UG2:sp|P00533.2|EGFR_HUMAN'
p207
I1210
sS'5CEP:sp|Q12852.2|M3K12_HUMAN'
p208
I859
sS'4Y93:pdb|4Y93|A'
p209
I446
sS'2NRU:sp|Q9NWZ3.1|IRAK4_HUMAN'
p210
I460
sS'2VWW:sp|P54760.2|EPHB4_HUMAN'
p211
I987
sS'2QOI:sp|P29320.2|EPHA3_HUMAN'
p212
I983
sS'2JKQ:sp|Q00944.2|FAK1_CHICK'
p213
I1053
sS'3CLY:sp|P21802.1|FGFR2_HUMAN'
p214
I821
sS'3MY0:sp|P37023.2|ACVL1_HUMAN'
p215
I503
sS'4WRG:sp|P00533.2|EGFR_HUMAN'
p216
I1210
sS'2QOF:sp|P29320.2|EPHA3_HUMAN'
p217
I983
sS'1QPJ:sp|P06239.6|LCK_HUMAN'
p218
I509
sS'4EHG:sp|P15056.4|BRAF_HUMAN'
p219
I766
sS'3CS9:sp|P00519.4|ABL1_HUMAN'
p220
I1130
sS'3PIY:sp|Q06187.3|BTK_HUMAN'
p221
I659
sS'4FNZ:sp|Q9UM73.3|ALK_HUMAN'
p222
I1620
sS'4D4Y:sp|Q00944.2|FAK1_CHICK'
p223
I1053
sS'4JOA:sp|Q9UM73.3|ALK_HUMAN'
p224
I1620
sS'4GJ2:sp|P29597.3|TYK2_HUMAN'
p225
I1187
sS'4AQC:sp|O60674.2|JAK2_HUMAN'
p226
I1132
sS'4XLI:sp|Q4JIM5.1|ABL2_MOUSE'
p227
I1182
sS'1U54:sp|Q07912.3|ACK1_HUMAN'
p228
I1038
sS'3G4S:sp|P12734.2|RL21_HALMA'
p229
I96
sS'3G0F:sp|P10721.1|KIT_HUMAN'
p230
I976
sS'4U9A:sp|Q9NWZ3.1|IRAK4_HUMAN'
p231
I460
sS'3LCD:sp|P07333.2|CSF1R_HUMAN'
p232
I972
sS'4EI4:sp|P23458.2|JAK1_HUMAN'
p233
I1154
sS'1FVR:sp|Q02763.2|TIE2_HUMAN'
p234
I1124
sS'3KY2:sp|P11362.3|FGFR1_HUMAN'
p235
I822
sS'2G1T:sp|P00519.4|ABL1_HUMAN'
p236
I1130
sS'2I0Y:sp|P07333.2|CSF1R_HUMAN'
p237
I972
sS'4KIO:sp|Q08881.1|ITK_HUMAN'
p238
I620
sS'4E4X:sp|P15056.4|BRAF_HUMAN'
p239
I766
sS'4Y73:sp|Q9NWZ3.1|IRAK4_HUMAN'
p240
I460
sS'3LXK:sp|P52333.2|JAK3_HUMAN'
p241
I1124
sS'4D4S:sp|Q00944.2|FAK1_CHICK'
p242
I1053
sS'3FQE:sp|P43405.1|KSYK_HUMAN'
p243
I635
sS'3DKF:sp|P08581.4|MET_HUMAN'
p244
I1390
sS'2QOB:sp|P29320.2|EPHA3_HUMAN'
p245
I983
sS'4RX8:sp|P43405.1|KSYK_HUMAN'
p246
I635
sS'4V8I:sp|Q5SHZ1.1|RL25_THET8'
p247
I206
sS'2R2P:sp|P54756.3|EPHA5_HUMAN'
p248
I1037
sS'3KRL:sp|P07333.2|CSF1R_HUMAN'
p249
I972
sS'4RWK:sp|P11362.3|FGFR1_HUMAN'
p250
I822
sS'2QO2:sp|P29320.2|EPHA3_HUMAN'
p251
I983
sS'2QU5:sp|P35968.2|VGFR2_HUMAN'
p252
I1356
sS'2WD1:sp|P08581.4|MET_HUMAN'
p253
I1390
sS'3CP9:sp|P35968.2|VGFR2_HUMAN'
p254
I1356
sS'3RVG:sp|O60674.2|JAK2_HUMAN'
p255
I1132
sS'5AR4:sp|O43353.2|RIPK2_HUMAN'
p256
I540
sS'3GEN:sp|Q06187.3|BTK_HUMAN'
p257
I659
sS'4TYI:sp|P22455.2|FGFR4_HUMAN'
p258
I802
sS'3F82:sp|P08581.4|MET_HUMAN'
p259
I1390
sS'3BYS:sp|P06239.6|LCK_HUMAN'
p260
I509
sS'2OIQ:sp|P00523.4|SRC_CHICK'
p261
I533
sS'2HZ4:sp|P00519.4|ABL1_HUMAN'
p262
I1130
sS'5CNO:sp|P00533.2|EGFR_HUMAN'
p263
I1210
sS'2RGP:sp|P00533.2|EGFR_HUMAN'
p264
I1210
sS'4RFY:sp|Q06187.3|BTK_HUMAN'
p265
I659
sS'5C9C:sp|P15056.4|BRAF_HUMAN'
p266
I766
sS'3BYO:sp|P06239.6|LCK_HUMAN'
p267
I509
sS'3BRB:sp|Q12866.2|MERTK_HUMAN'
p268
I999
sS'4I4E:sp|Q05397.2|FAK1_HUMAN'
p269
I1052
sS'4AGW:sp|P00523.4|SRC_CHICK'
p270
I533
sS'4YNE:sp|P04629.4|NTRK1_HUMAN'
p271
I796
sS'3JS2:sp|P11362.3|FGFR1_HUMAN'
p272
I822
sS'1FMK:pdb|1FMK|'
p273
I452
sS'3ZON:sp|P29597.3|TYK2_HUMAN'
p274
I1187
sS'3NYX:sp|P29597.3|TYK2_HUMAN'
p275
I1187
sS'5D12:sp|P00523.4|SRC_CHICK'
p276
I533
sS'1P14:sp|P06213.4|INSR_HUMAN'
p277
I1382
sS'4FK3:sp|P15056.4|BRAF_HUMAN'
p278
I766
sS'5E1S:sp|P06213.4|INSR_HUMAN'
p279
I1382
sS'4U5J:sp|P00523.4|SRC_CHICK'
p280
I533
sS'4I0S:sp|P43405.1|KSYK_HUMAN'
p281
I635
sS'3AC2:sp|P06239.6|LCK_HUMAN'
p282
I509
sS'3BU3:sp|P81122.2|IRS2_MOUSE'
p283
I1321
sS'3VS3:sp|P08631.5|HCK_HUMAN'
p284
I526
sS'4DCE:sp|Q9UM73.3|ALK_HUMAN'
p285
I1620
sS'4R1Y:sp|P08581.4|MET_HUMAN'
p286
I1390
sS'4ASZ:sp|Q16620.1|NTRK2_HUMAN'
p287
I822
sS'4YTF:sp|O60674.2|JAK2_HUMAN'
p288
I1132
sS'4EBW:sp|Q05397.2|FAK1_HUMAN'
p289
I1052
sS'4GS6:sp|Q15750.1|TAB1_HUMAN'
p290
I504
sS'3HMI:sp|P42684.1|ABL2_HUMAN'
p291
I1182
sS'2OG8:sp|P06239.6|LCK_HUMAN'
p292
I509
sS'3BPR:sp|Q12866.2|MERTK_HUMAN'
p293
I999
sS'4K2R:sp|P43403.1|ZAP70_HUMAN'
p294
I619
sS'4D5K:sp|Q00944.2|FAK1_CHICK'
p295
I1053
sS'2V7A:sp|P00519.4|ABL1_HUMAN'
p296
I1130
sS'3W2S:sp|P00533.2|EGFR_HUMAN'
p297
I1210
sS'3QGY:sp|Q08881.1|ITK_HUMAN'
p298
I620
sS'4P4C:sp|P29320.2|EPHA3_HUMAN'
p299
I983
sS'4PP7:sp|P15056.4|BRAF_HUMAN'
p300
I766
sS'1XKK:sp|P00533.2|EGFR_HUMAN'
p301
I1210
sS'4JQ8:sp|P00533.2|EGFR_HUMAN'
p302
I1210
sS'4X3J:sp|Q02763.2|TIE2_HUMAN'
p303
I1124
sS'4KAO:sp|Q05397.2|FAK1_HUMAN'
p304
I1052
sS'4FVR:sp|O60674.2|JAK2_HUMAN'
p305
I1132
sS'3PJ1:sp|Q06187.3|BTK_HUMAN'
p306
I659
sS'3OF0:sp|P00523.4|SRC_CHICK'
p307
I533
sS'3AD4:sp|P06239.6|LCK_HUMAN'
p308
I509
sS'5BQ0:sp|Q06187.3|BTK_HUMAN'
p309
I659
sS'2OIB:sp|Q9NWZ3.1|IRAK4_HUMAN'
p310
I460
sS'4ANQ:sp|Q9UM73.3|ALK_HUMAN'
p311
I1620
sS'3KMU:sp|Q13418.2|ILK_HUMAN'
p312
I452
sS'3VNT:sp|P35968.2|VGFR2_HUMAN'
p313
I1356
sS'1M7N:sp|P08069.1|IGF1R_HUMAN'
p314
I1367
sS'3VS0:sp|P08631.5|HCK_HUMAN'
p315
I526
sS'2JKK:sp|Q00944.2|FAK1_CHICK'
p316
I1053
sS'1Y6B:sp|P35968.2|VGFR2_HUMAN'
p317
I1356
sS'4QQT:sp|P22455.2|FGFR4_HUMAN'
p318
I802
sS'1JQH:sp|P08069.1|IGF1R_HUMAN'
p319
I1367
sS'4PDO:sp|P29317.2|EPHA2_HUMAN'
p320
I976
sS'4FVP:sp|O60674.2|JAK2_HUMAN'
p321
I1132
sS'1K3A:sp|P35568.1|IRS1_HUMAN'
p322
I1242
sS'3I5N:sp|P08581.4|MET_HUMAN'
p323
I1390
sS'3LMG:sp|P21860.1|ERBB3_HUMAN'
p324
I1342
sS'4V8M:sp|P21899.2|RL40_TRYBB'
p325
I128
sS'1VQO:sp|P12734.2|RL21_HALMA'
p326
I96
sS'4PMM:sp|P04629.4|NTRK1_HUMAN'
p327
I796
sS'4ZIM:sp|O60674.2|JAK2_HUMAN'
p328
I1132
sS'4YJQ:sp|P43405.1|KSYK_HUMAN'
p329
I635
sS'4R7I:sp|P07333.2|CSF1R_HUMAN'
p330
I972
sS'5CAQ:sp|P00533.2|EGFR_HUMAN'
p331
I1210
sS'3POZ:sp|P00533.2|EGFR_HUMAN'
p332
I1210
sS'4YJP:sp|P43405.1|KSYK_HUMAN'
p333
I635
sS'4QT1:sp|P52333.2|JAK3_HUMAN'
p334
I1124
sS'3MDY:sp|P62942.2|FKB1A_HUMAN'
p335
I108
sS'3RI1:sp|P21802.1|FGFR2_HUMAN'
p336
I821
sS'2ZVA:sp|P25911.4|LYN_MOUSE'
p337
I512
sS'4I23:sp|P00533.2|EGFR_HUMAN'
p338
I1210
sS'2XBA:sp|Q9UM73.3|ALK_HUMAN'
p339
I1620
sS'2ITP:sp|P00533.2|EGFR_HUMAN'
p340
I1210
sS'4CD0:sp|Q9UM73.3|ALK_HUMAN'
p341
I1620
sS'3CJG:sp|P35968.2|VGFR2_HUMAN'
p342
I1356
sS'4AGC:sp|P35968.2|VGFR2_HUMAN'
p343
I1356
sS'3H3C:sp|Q14289.2|FAK2_HUMAN'
p344
I1009
sS'3BZ3:sp|Q05397.2|FAK1_HUMAN'
p345
I1052
sS'4ZSA:sp|P11362.3|FGFR1_HUMAN'
p346
I822
sS'3F3T:sp|P00523.4|SRC_CHICK'
p347
I533
sS'4YJV:sp|P43405.1|KSYK_HUMAN'
p348
I635
sS'4CLI:sp|Q9UM73.3|ALK_HUMAN'
p349
I1620
sS'5A46:sp|P11362.3|FGFR1_HUMAN'
p350
I822
sS'5CF5:sp|O60674.2|JAK2_HUMAN'
p351
I1132
sS'3UE4:sp|P00519.4|ABL1_HUMAN'
p352
I1130
sS'3EQP:sp|Q07912.3|ACK1_HUMAN'
p353
I1038
sS'3ZEP:sp|P52333.2|JAK3_HUMAN'
p354
I1124
sS'4JR3:sp|P00533.2|EGFR_HUMAN'
p355
I1210
sS'4XCU:sp|P22455.2|FGFR4_HUMAN'
p356
I802
sS'3W2O:sp|P00533.2|EGFR_HUMAN'
p357
I1210
sS'1T45:sp|P10721.1|KIT_HUMAN'
p358
I976
sS'1IR3:sp|P06213.4|INSR_HUMAN'
p359
I1382
sS'2X2L:sp|P07949.3|RET_HUMAN'
p360
I1114
sS'4KSP:sp|P15056.4|BRAF_HUMAN'
p361
I766
sS'4MXZ:sp|P12931.3|SRC_HUMAN'
p362
I536
sS'4HW7:sp|P07333.2|CSF1R_HUMAN'
p363
I972
sS'3QTI:sp|P08581.4|MET_HUMAN'
p364
I1390
sS'2ITW:sp|P00533.2|EGFR_HUMAN'
p365
I1210
sS'3PSB:sp|P15056.4|BRAF_HUMAN'
p366
I766
sS'4RIY:sp|P00533.2|EGFR_HUMAN'
p367
I1210
sS'3FZT:sp|Q14289.2|FAK2_HUMAN'
p368
I1009
sS'3DTW:sp|P35968.2|VGFR2_HUMAN'
p369
I1356
sS'4YMJ:sp|Q16288.2|NTRK3_HUMAN'
p370
I839
sS'4ZJV:sp|P00533.2|EGFR_HUMAN'
p371
I1210
sS'3DKC:sp|P08581.4|MET_HUMAN'
p372
I1390
sS'2QO9:sp|P29320.2|EPHA3_HUMAN'
p373
I983
sS'3VS7:sp|P08631.5|HCK_HUMAN'
p374
I526
sS'4QQJ:sp|P22455.2|FGFR4_HUMAN'
p375
I802
sS'2Q0B:sp|P21802.1|FGFR2_HUMAN'
p376
I821
sS'4EHE:sp|P15056.4|BRAF_HUMAN'
p377
I766
sS'4CMT:sp|Q9UM73.3|ALK_HUMAN'
p378
I1620
sS'1QPC:sp|P06239.6|LCK_HUMAN'
p379
I509
sS'4EBV:sp|Q05397.2|FAK1_HUMAN'
p380
I1052
sS'3R7O:sp|P08581.4|MET_HUMAN'
p381
I1390
sS'3VHK:sp|P35968.2|VGFR2_HUMAN'
p382
I1356
sS'4MNF:sp|P15056.4|BRAF_HUMAN'
p383
I766
sS'3PYY:sp|P00519.4|ABL1_HUMAN'
p384
I1130
sS'5C26:sp|P43405.1|KSYK_HUMAN'
p385
I635
sS'4F1M:sp|Q6XHB2.1|ROCO4_DICDI'
p386
I1726
sS'1AGW:sp|P11362.3|FGFR1_HUMAN'
p387
I822
sS'4LGG:sp|P00523.4|SRC_CHICK'
p388
I533
sS'2IVT:sp|P07949.3|RET_HUMAN'
p389
I1114
sS'4FNW:sp|Q9UM73.3|ALK_HUMAN'
p390
I1620
sS'4RJ8:sp|P00533.2|EGFR_HUMAN'
p391
I1210
sS'2Z60:sp|P00520.3|ABL1_MOUSE'
p392
I1123
sS'3OXZ:sp|P00520.3|ABL1_MOUSE'
p393
I1123
sS'3LPB:sp|O60674.2|JAK2_HUMAN'
p394
I1132
sS'4L01:sp|P23458.2|JAK1_HUMAN'
p395
I1154
sS'2ZM4:sp|P06239.6|LCK_HUMAN'
p396
I509
sS'4PP9:sp|Q08881.1|ITK_HUMAN'
p397
I620
sS'3NZ0:sp|P29597.3|TYK2_HUMAN'
p398
I1187
sS'4GFO:sp|P29597.3|TYK2_HUMAN'
p399
I1187
sS'3VRZ:sp|P08631.5|HCK_HUMAN'
p400
I526
sS'3QGW:sp|Q08881.1|ITK_HUMAN'
p401
I620
sS'2G2F:sp|P00519.4|ABL1_HUMAN'
p402
I1130
sS'2HK5:sp|P08631.5|HCK_HUMAN'
p403
I526
sS'2GQG:sp|P00519.4|ABL1_HUMAN'
p404
I1130
sS'2VX0:sp|P54760.2|EPHB4_HUMAN'
p405
I987
sS'2ITQ:sp|P00533.2|EGFR_HUMAN'
p406
I1210
sS'3EL8:sp|P00523.4|SRC_CHICK'
p407
I533
sS'3AC5:sp|P06239.6|LCK_HUMAN'
p408
I509
sS'4IVD:sp|P23458.2|JAK1_HUMAN'
p409
I1154
sS'4FC0:sp|P15056.4|BRAF_HUMAN'
p410
I766
sS'4C7T:sp|Q00944.2|FAK1_CHICK'
p411
I1053
sS'2HWO:sp|P00523.4|SRC_CHICK'
p412
I533
sS'4MXY:sp|P12931.3|SRC_HUMAN'
p413
I536
sS'3KFA:sp|P00520.3|ABL1_MOUSE'
p414
I1123
sS'4I20:sp|P00533.2|EGFR_HUMAN'
p415
I1210
sS'4GK2:sp|P29320.2|EPHA3_HUMAN'
p416
I983
sS'4M0Y:sp|Q08881.1|ITK_HUMAN'
p417
I620
sS'3A4O:sp|P07948.3|LYN_HUMAN'
p418
I512
sS'4MF1:sp|Q08881.1|ITK_HUMAN'
p419
I620
sS'3TCP:sp|Q12866.2|MERTK_HUMAN'
p420
I999
sS'3P86:sp|Q05609.1|CTR1_ARATH'
p421
I821
sS'1LUF:sp|Q62838.1|MUSK_RAT'
p422
I868
sS'5CAV:sp|P00533.2|EGFR_HUMAN'
p423
I1210
sS'3PIZ:sp|Q06187.3|BTK_HUMAN'
p424
I659
sS'1QCF:sp|P08631.5|HCK_HUMAN'
p425
I526
sS'3OY3:sp|P00520.3|ABL1_MOUSE'
p426
I1123
sS'2OFU:sp|P06239.6|LCK_HUMAN'
p427
I509
sS'4WUN:sp|P11362.3|FGFR1_HUMAN'
p428
I822
sS'4V8O:sp|P0A7I4.2|RF3_ECOLI'
p429
I529
sS'4GK3:sp|P29320.2|EPHA3_HUMAN'
p430
I983
sS'2C0O:sp|P08631.5|HCK_HUMAN'
p431
I526
sS'3W2R:sp|P00533.2|EGFR_HUMAN'
p432
I1210
sS'4ITI:sp|Q13546.3|RIPK1_HUMAN'
p433
I671
sS'2ZYB:sp|P06239.6|LCK_HUMAN'
p434
I509
sS'3PJC:sp|P52333.2|JAK3_HUMAN'
p435
I1124
sS'3TV6:sp|P15056.4|BRAF_HUMAN'
p436
I766
sS'3L8P:sp|Q02763.2|TIE2_HUMAN'
p437
I1124
sS'4ZTL:sp|Q9NWZ3.1|IRAK4_HUMAN'
p438
I460
sS'2ITZ:sp|P00533.2|EGFR_HUMAN'
p439
I1210
sS'3AOX:sp|Q9UM73.3|ALK_HUMAN'
p440
I1620
sS'3ZCL:sp|P08581.4|MET_HUMAN'
p441
I1390
sS'3BU6:sp|P81122.2|IRS2_MOUSE'
p442
I1321
sS'3VID:sp|P35968.2|VGFR2_HUMAN'
p443
I1356
sS'2VWU:sp|P54760.2|EPHB4_HUMAN'
p444
I987
sS'4FYO:sp|P43405.1|KSYK_HUMAN'
p445
I635
sS'3TT0:sp|P11362.3|FGFR1_HUMAN'
p446
I822
sS'4R7H:sp|P07333.2|CSF1R_HUMAN'
p447
I972
sS'4TYE:sp|P22455.2|FGFR4_HUMAN'
p448
I802
sS'3MS9:sp|P00520.3|ABL1_MOUSE'
p449
I1123
sS'1BYG:sp|P41240.1|CSK_HUMAN'
p450
I450
sS'3BBW:sp|Q15303.1|ERBB4_HUMAN'
p451
I1308
sS'5CXZ:sp|P43405.1|KSYK_HUMAN'
p452
I635
sS'2RFS:sp|P08581.4|MET_HUMAN'
p453
I1390
sS'3CPW:sp|P12734.2|RL21_HALMA'
p454
I96
sS'4F0G:sp|Q6XHB2.1|ROCO4_DICDI'
p455
I1726
sS'4K33:sp|P22607.1|FGFR3_HUMAN'
p456
I806
sS'3KMW:sp|Q13418.2|ILK_HUMAN'
p457
I452
sS'2EB2:sp|P00533.2|EGFR_HUMAN'
p458
I1210
sS'2PL0:sp|P06239.6|LCK_HUMAN'
p459
I509
sS'3UG1:sp|P00533.2|EGFR_HUMAN'
p460
I1210
sS'2QOH:sp|P00520.3|ABL1_MOUSE'
p461
I1123
sS'1PKG:sp|P10721.1|KIT_HUMAN'
p462
I976
sS'2QOK:sp|P29320.2|EPHA3_HUMAN'
p463
I983
sS'3QLF:sp|P00523.4|SRC_CHICK'
p464
I533
sS'4UWC:sp|P11362.3|FGFR1_HUMAN'
p465
I822
sS'3EN7:sp|P00523.4|SRC_CHICK'
p466
I533
sS'3LCT:sp|Q9UM73.3|ALK_HUMAN'
p467
I1620
sS'4V6O:sp|P0AG44.1|RL17_ECOLI'
p468
I127
sS'3UIM:sp|Q94F62.2|BAK1_ARATH'
p469
I615
sS'4MKC:sp|Q9UM73.3|ALK_HUMAN'
p470
I1620
sS'3MIY:sp|Q08881.1|ITK_HUMAN'
p471
I620
sS'4MCV:sp|P00523.4|SRC_CHICK'
p472
I533
sS'1AD5:sp|P08631.5|HCK_HUMAN'
p473
I526
sS'3KUL:sp|P29322.2|EPHA8_HUMAN'
p474
I1005
sS'4JIA:sp|O60674.2|JAK2_HUMAN'
p475
I1132
sS'4RJ4:sp|P00533.2|EGFR_HUMAN'
p476
I1210
sS'4YZM:sp|Q6XHB2.1|ROCO4_DICDI'
p477
I1726
sS'4CLJ:sp|Q9UM73.3|ALK_HUMAN'
p478
I1620
sS'2XYU:sp|Q03137.2|EPHA4_MOUSE'
p479
I986
sS'4GMY:sp|O60674.2|JAK2_HUMAN'
p480
I1132
sS'4H1M:sp|Q14289.2|FAK2_HUMAN'
p481
I1009
sS'2GSF:sp|P29320.2|EPHA3_HUMAN'
p482
I983
sS'3ULZ:sp|Q94F62.2|BAK1_ARATH'
p483
I615
sS'3BYM:sp|P06239.6|LCK_HUMAN'
p484
I509
sS'4E4M:sp|O60674.2|JAK2_HUMAN'
p485
I1132
sS'1GJO:sp|P21802.1|FGFR2_HUMAN'
p486
I821
sS'4BBF:sp|O60674.2|JAK2_HUMAN'
p487
I1132
sS'3NW6:sp|P08069.1|IGF1R_HUMAN'
p488
I1367
sS'4KNB:sp|P08581.4|MET_HUMAN'
p489
I1390
sS'4U97:sp|Q9NWZ3.1|IRAK4_HUMAN'
p490
I460
sS'3TZ7:sp|P00523.4|SRC_CHICK'
p491
I533
sS'3AD6:sp|P06239.6|LCK_HUMAN'
p492
I509
sS'1XBA:sp|P43405.1|KSYK_HUMAN'
p493
I635
sS'2Z8C:sp|P06213.4|INSR_HUMAN'
p494
I1382
sS'4I6Q:sp|P52333.2|JAK3_HUMAN'
p495
I1124
sS'3W32:sp|P00533.2|EGFR_HUMAN'
p496
I1210
sS'2G15:sp|P08581.4|MET_HUMAN'
p497
I1390
sS'4MXX:sp|P12931.3|SRC_HUMAN'
p498
I536
sS'4YTI:sp|O60674.2|JAK2_HUMAN'
p499
I1132
sS'1UWH:sp|P15056.4|BRAF_HUMAN'
p500
I766
sS'4L68:sp|Q9LSI9.1|BIR2_ARATH'
p501
I605
sS'4CKR:sp|Q08345.1|DDR1_HUMAN'
p502
I913
sS'2QON:sp|P29320.2|EPHA3_HUMAN'
p503
I983
sS'4E26:sp|P15056.4|BRAF_HUMAN'
p504
I766
sS'4OTQ:sp|Q06187.3|BTK_HUMAN'
p505
I659
sS'2HYY:sp|P00519.4|ABL1_HUMAN'
p506
I1130
sS'2SRC:pdb|2SRC|'
p507
I452
sS'4GJ3:sp|P29597.3|TYK2_HUMAN'
p508
I1187
sS'4LUE:sp|P08631.5|HCK_HUMAN'
p509
I526
sS'3REP:sp|Q13418.2|ILK_HUMAN'
p510
I452
sS'4GG7:sp|P08581.4|MET_HUMAN'
p511
I1390
sS'2IVS:sp|P07949.3|RET_HUMAN'
p512
I1114
sS'3B2T:sp|P21802.1|FGFR2_HUMAN'
p513
I821
sS'3DKG:sp|P08581.4|MET_HUMAN'
p514
I1390
sS'4V8C:sp|Q5SHZ1.1|RL25_THET8'
p515
I206
sS'4D1S:sp|O60674.2|JAK2_HUMAN'
p516
I1132
sS'1QPE:sp|P06239.6|LCK_HUMAN'
p517
I509
sS'4M69:sp|Q9QZL0.2|RIPK3_MOUSE'
p518
I486
sS'4XV2:sp|P15056.4|BRAF_HUMAN'
p519
I766
sS'4FL2:sp|P43405.1|KSYK_HUMAN'
p520
I635
sS'2QQ7:sp|P00523.4|SRC_CHICK'
p521
I533
sS'3IDP:sp|P15056.4|BRAF_HUMAN'
p522
I766
sS'4RFM:sp|Q08881.1|ITK_HUMAN'
p523
I620
sS'3Q32:sp|O60674.2|JAK2_HUMAN'
p524
I1132
sS'3EKK:sp|P06213.4|INSR_HUMAN'
p525
I1382
sS'4K8A:sp|Q05397.2|FAK1_HUMAN'
p526
I1052
sS'3OCS:sp|Q06187.3|BTK_HUMAN'
p527
I659
sS'1MQB:sp|P29317.2|EPHA2_HUMAN'
p528
I976
sS'3K5V:sp|P00520.3|ABL1_MOUSE'
p529
I1123
sS'3BEA:sp|Q02763.2|TIE2_HUMAN'
p530
I1124
sS'2J6M:sp|P00533.2|EGFR_HUMAN'
p531
I1210
sS'4O91:sp|Q15750.1|TAB1_HUMAN'
p532
I504
sS'4FK6:sp|P23458.2|JAK1_HUMAN'
p533
I1154
sS'4F09:sp|O60674.2|JAK2_HUMAN'
p534
I1132
sS'4EHZ:sp|P23458.2|JAK1_HUMAN'
p535
I1154
sS'4I5C:sp|P23458.2|JAK1_HUMAN'
p536
I1154
sS'4IWD:sp|P08581.4|MET_HUMAN'
p537
I1390
sS'3EFL:sp|P35968.2|VGFR2_HUMAN'
p538
I1356
sS'2PSQ:sp|P21802.1|FGFR2_HUMAN'
p539
I821
sS'3G0E:sp|P10721.1|KIT_HUMAN'
p540
I976
sS'4ZTM:sp|Q9NWZ3.1|IRAK4_HUMAN'
p541
I460
sS'4XV1:sp|P15056.4|BRAF_HUMAN'
p542
I766
sS'4ASE:sp|P35968.2|VGFR2_HUMAN'
p543
I1356
sS'4AT4:sp|Q16620.1|NTRK2_HUMAN'
p544
I822
sS'4FZ7:sp|P43405.1|KSYK_HUMAN'
p545
I635
sS'2XIR:sp|P35968.2|VGFR2_HUMAN'
p546
I1356
sS'3BU5:sp|P81122.2|IRS2_MOUSE'
p547
I1321
sS'2ITN:sp|P00533.2|EGFR_HUMAN'
p548
I1210
sS'3VS4:sp|P08631.5|HCK_HUMAN'
p549
I526
sS'4M13:sp|Q08881.1|ITK_HUMAN'
p550
I620
sS'3GOP:sp|P00533.2|EGFR_HUMAN'
p551
I1210
sS'4D58:sp|Q00944.2|FAK1_CHICK'
p552
I1053
sS'2HZI:sp|P00519.4|ABL1_HUMAN'
p553
I1130
sS'2VWV:sp|P54760.2|EPHB4_HUMAN'
p554
I987
sS'3WZD:sp|P35968.2|VGFR2_HUMAN'
p555
I1356
sS'3CTJ:sp|P08581.4|MET_HUMAN'
p556
I1390
sS'3BEL:sp|P00533.2|EGFR_HUMAN'
p557
I1210
sS'4YTC:sp|O60674.2|JAK2_HUMAN'
p558
I1132
sS'4RJ7:sp|P00533.2|EGFR_HUMAN'
p559
I1210
sS'4AP7:sp|P08581.4|MET_HUMAN'
p560
I1390
sS'1R0P:sp|P08581.4|MET_HUMAN'
p561
I1390
sS'4MXO:sp|P12931.3|SRC_HUMAN'
p562
I536
sS'3O23:sp|P08069.1|IGF1R_HUMAN'
p563
I1367
sS'3OEZ:sp|P00523.4|SRC_CHICK'
p564
I533
sS'3ZBX:sp|P08581.4|MET_HUMAN'
p565
I1390
sS'4H1J:sp|Q14289.2|FAK2_HUMAN'
p566
I1009
sS'2RF9:sp|P00533.2|EGFR_HUMAN'
p567
I1210
sS'3LQ8:sp|P08581.4|MET_HUMAN'
p568
I1390
sS'4LUD:sp|P08631.5|HCK_HUMAN'
p569
I526
sS'3FZP:sp|Q14289.2|FAK2_HUMAN'
p570
I1009
sS'2QU6:sp|P35968.2|VGFR2_HUMAN'
p571
I1356
sS'4CKJ:sp|P07949.3|RET_HUMAN'
p572
I1114
sS'2ZV7:sp|P25911.4|LYN_MOUSE'
p573
I512
sS'3KRJ:sp|P07333.2|CSF1R_HUMAN'
p574
I972
sS'4IVC:sp|P23458.2|JAK1_HUMAN'
p575
I1154
sS'3PPJ:sp|P15056.4|BRAF_HUMAN'
p576
I766
sS'3P08:sp|Q06187.3|BTK_HUMAN'
p577
I659
sS'1P4O:sp|P08069.1|IGF1R_HUMAN'
p578
I1367
sS'4E6Q:sp|O60674.2|JAK2_HUMAN'
p579
I1132
sS'4MF0:sp|Q08881.1|ITK_HUMAN'
p580
I620
sS'3T9T:sp|Q08881.1|ITK_HUMAN'
p581
I620
sS'1M17:sp|P00533.2|EGFR_HUMAN'
p582
I1210
sS'2QI8:sp|P00523.4|SRC_CHICK'
p583
I533
sS'4I22:sp|P00533.2|EGFR_HUMAN'
p584
I1210
sS'3QRJ:sp|P00519.4|ABL1_HUMAN'
p585
I1130
sS'4MBJ:sp|P15056.4|BRAF_HUMAN'
p586
I766
sS'1YOJ:sp|P12931.3|SRC_HUMAN'
p587
I536
sS'1VQ6:sp|P12734.2|RL21_HALMA'
p588
I96
sS'2P2H:sp|P35968.2|VGFR2_HUMAN'
p589
I1356
sS'4YJT:sp|P43405.1|KSYK_HUMAN'
p590
I635
sS'3C4C:sp|P15056.4|BRAF_HUMAN'
p591
I766
sS'4I93:sp|Q9FHD7.1|Y5126_ARATH'
p592
I487
sS'3FZS:sp|Q14289.2|FAK2_HUMAN'
p593
I1009
sS'3QUP:sp|P55144.2|TYRO3_MOUSE'
p594
I880
sS'4F4P:sp|P43405.1|KSYK_HUMAN'
p595
I635
sS'4FF8:sp|P55144.2|TYRO3_MOUSE'
p596
I880
sS'2YJS:sp|Q9UM73.3|ALK_HUMAN'
p597
I1620
sS'4YJU:sp|P43405.1|KSYK_HUMAN'
p598
I635
sS'2P2I:sp|P35968.2|VGFR2_HUMAN'
p599
I1356
sS'3DKO:sp|Q15375.3|EPHA7_HUMAN'
p600
I998
sS'2Y6M:sp|Q03137.2|EPHA4_MOUSE'
p601
I986
sS'4ITJ:sp|Q13546.3|RIPK1_HUMAN'
p602
I671
sS'4KAB:sp|Q05397.2|FAK1_HUMAN'
p603
I1052
sS'3J5L:sp|P0AG44.1|RL17_ECOLI'
p604
I127
sS'4TKS:sp|P00533.2|EGFR_HUMAN'
p605
I1210
sS'4J98:sp|P21802.1|FGFR2_HUMAN'
p606
I821
sS'4BB4:sp|P54760.2|EPHB4_HUMAN'
p607
I987
sS'2RFN:sp|P08581.4|MET_HUMAN'
p608
I1390
sS'4YPS:sp|P04629.4|NTRK1_HUMAN'
p609
I796
sS'3ZEW:sp|P54760.2|EPHB4_HUMAN'
p610
I987
sS'4PPA:sp|Q08881.1|ITK_HUMAN'
p611
I620
sS'4RFZ:sp|Q06187.3|BTK_HUMAN'
p612
I659
sS'4V01:sp|P11362.3|FGFR1_HUMAN'
p613
I822
sS'3BE2:sp|P35968.2|VGFR2_HUMAN'
p614
I1356
sS'2G2H:sp|P00519.4|ABL1_HUMAN'
p615
I1130
sS'4G9C:sp|P15056.4|BRAF_HUMAN'
p616
I766
sS'4V05:sp|P11362.3|FGFR1_HUMAN'
p617
I822
sS'4K9Y:sp|Q05397.2|FAK1_HUMAN'
p618
I1052
sS'3CPB:sp|P35968.2|VGFR2_HUMAN'
p619
I1356
sS'1MP8:sp|Q05397.2|FAK1_HUMAN'
p620
I1052
sS'4CCB:sp|Q9UM73.3|ALK_HUMAN'
p621
I1620
sS'3E62:sp|O60674.2|JAK2_HUMAN'
p622
I1132
sS'4Z3V:sp|Q06187.3|BTK_HUMAN'
p623
I659
sS'3KRR:sp|O60674.2|JAK2_HUMAN'
p624
I1132
sS'4XI2:sp|P35991.4|BTK_MOUSE'
p625
I659
sS'2QOO:sp|P29320.2|EPHA3_HUMAN'
p626
I983
sS'4IVB:sp|P23458.2|JAK1_HUMAN'
p627
I1154
sS'4PMT:sp|P04629.4|NTRK1_HUMAN'
p628
I796
sS'3UGC:sp|O60674.2|JAK2_HUMAN'
p629
I1132
sS'3MJ2:sp|Q08881.1|ITK_HUMAN'
p630
I620
sS'4I0R:sp|P43405.1|KSYK_HUMAN'
p631
I635
sS'2ITY:sp|P00533.2|EGFR_HUMAN'
p632
I1210
sS'1Y57:sp|P12931.3|SRC_HUMAN'
p633
I536
sS'3E64:sp|O60674.2|JAK2_HUMAN'
p634
I1132
sS'4M0Z:sp|Q08881.1|ITK_HUMAN'
p635
I620
sS'3G6H:sp|P00523.4|SRC_CHICK'
p636
I533
sS'4PQN:sp|Q08881.1|ITK_HUMAN'
p637
I620
sS'3U6J:sp|P35968.2|VGFR2_HUMAN'
p638
I1356
sS'3Q6W:sp|P08581.4|MET_HUMAN'
p639
I1390
sS'4FEQ:sp|P55144.2|TYRO3_MOUSE'
p640
I880
sS'3LCS:sp|Q9UM73.3|ALK_HUMAN'
p641
I1620
sS'4RWL:sp|P11362.3|FGFR1_HUMAN'
p642
I822
sS'4AG8:sp|P35968.2|VGFR2_HUMAN'
p643
I1356
sS'2ZV9:sp|P25911.4|LYN_MOUSE'
p644
I512
sS'4V6Q:sp|P0AG44.1|RL17_ECOLI'
p645
I127
sS'4FNX:sp|Q9UM73.3|ALK_HUMAN'
p646
I1620
sS'3MSS:sp|P00520.3|ABL1_MOUSE'
p647
I1123
sS'1VQ5:sp|P12734.2|RL21_HALMA'
p648
I96
sS'2JKO:sp|Q00944.2|FAK1_CHICK'
p649
I1053
sS'2HIW:sp|P00519.4|ABL1_HUMAN'
p650
I1130
sS'4PPB:sp|Q08881.1|ITK_HUMAN'
p651
I620
sS'1FGK:sp|P11362.3|FGFR1_HUMAN'
p652
I822
sS'4F63:sp|P11362.3|FGFR1_HUMAN'
p653
I822
sS'3EFJ:sp|P08581.4|MET_HUMAN'
p654
I1390
sS'4PMS:sp|P04629.4|NTRK1_HUMAN'
p655
I796
sS'4RWJ:sp|P11362.3|FGFR1_HUMAN'
p656
I822
sS'4ITH:sp|Q13546.3|RIPK1_HUMAN'
p657
I671
sS'3DQW:sp|P00523.4|SRC_CHICK'
p658
I533
sS'3A4P:sp|P08581.4|MET_HUMAN'
p659
I1390
sS'2I0V:sp|P07333.2|CSF1R_HUMAN'
p660
I972
sS'3GEQ:sp|P00523.4|SRC_CHICK'
p661
I533
sS'3Q96:sp|P15056.4|BRAF_HUMAN'
p662
I766
sS'4YHF:sp|Q06187.3|BTK_HUMAN'
p663
I659
sS'1SM2:sp|Q08881.1|ITK_HUMAN'
p664
I620
sS'3LW0:sp|P08069.1|IGF1R_HUMAN'
p665
I1367
sS'1U59:sp|P43403.1|ZAP70_HUMAN'
p666
I619
sS'3QRK:sp|P00519.4|ABL1_HUMAN'
p667
I1130
sS'4CQE:sp|P15056.4|BRAF_HUMAN'
p668
I766
sS'4L3P:sp|Q15750.1|TAB1_HUMAN'
p669
I504
sS'4YO6:sp|Q9NWZ3.1|IRAK4_HUMAN'
p670
I460
sS'3ET7:sp|Q14289.2|FAK2_HUMAN'
p671
I1009
sS'4GU6:sp|Q05397.2|FAK1_HUMAN'
p672
I1052
sS'4L7S:sp|Q08881.1|ITK_HUMAN'
p673
I620
sS'4D5H:sp|Q00944.2|FAK1_CHICK'
p674
I1053
sS'2OZO:sp|P43403.1|ZAP70_HUMAN'
p675
I619
sS'4JRV:sp|P00533.2|EGFR_HUMAN'
p676
I1210
sS'2P0C:sp|Q12866.2|MERTK_HUMAN'
p677
I999
sS'5AR8:sp|O43353.2|RIPK2_HUMAN'
p678
I540
sS'5CAO:sp|P00533.2|EGFR_HUMAN'
p679
I1210
sS'4AW5:sp|P54760.2|EPHB4_HUMAN'
p680
I987
sS'4R6V:sp|P22455.2|FGFR4_HUMAN'
p681
I802
sS'1NKW:sp|Q9RY64.2|RL21_DEIRA'
p682
I100
sS'4J99:sp|P21802.1|FGFR2_HUMAN'
p683
I821
sS'5D11:sp|P00523.4|SRC_CHICK'
p684
I533
sS'3F5P:sp|P08069.1|IGF1R_HUMAN'
p685
I1367
sS'4ANL:sp|Q9UM73.3|ALK_HUMAN'
p686
I1620
sS'3G6G:sp|P00523.4|SRC_CHICK'
p687
I533
sS'3ACJ:sp|P06239.6|LCK_HUMAN'
p688
I509
sS'4M12:sp|Q08881.1|ITK_HUMAN'
p689
I620
sS'2NRY:sp|Q9NWZ3.1|IRAK4_HUMAN'
p690
I460
sS'2PZ5:sp|P21802.1|FGFR2_HUMAN'
p691
I821
sS'4TWP:sp|P00519.4|ABL1_HUMAN'
p692
I1130
sS'2OF4:sp|P06239.6|LCK_HUMAN'
p693
I509
sS'3CE3:sp|P08581.4|MET_HUMAN'
p694
I1390
sS'3SRV:sp|P43405.1|KSYK_HUMAN'
p695
I635
sS'3W2P:sp|P00533.2|EGFR_HUMAN'
p696
I1210
sS'4IVA:sp|O60674.2|JAK2_HUMAN'
p697
I1132
sS'4ASD:sp|P35968.2|VGFR2_HUMAN'
p698
I1356
sS'3FXX:sp|P29320.2|EPHA3_HUMAN'
p699
I983
sS'4XUF:sp|P36888.2|FLT3_HUMAN'
p700
I993
sS'2PVF:sp|P21802.1|FGFR2_HUMAN'
p701
I821
sS'4I0T:sp|P43405.1|KSYK_HUMAN'
p702
I635
sS'3PRF:sp|P15056.4|BRAF_HUMAN'
p703
I766
sS'4J97:sp|P21802.1|FGFR2_HUMAN'
p704
I821
sS'3L8V:sp|P08581.4|MET_HUMAN'
p705
I1390
sS'2X9F:sp|P54760.2|EPHB4_HUMAN'
p706
I987
sS'2PY3:sp|P21802.1|FGFR2_HUMAN'
p707
I821
sS'4U0I:sp|P10721.1|KIT_HUMAN'
p708
I976
sS'2ITV:sp|P00533.2|EGFR_HUMAN'
p709
I1210
sS'4F08:sp|O60674.2|JAK2_HUMAN'
p710
I1132
sS'4TWN:sp|P29320.2|EPHA3_HUMAN'
p711
I983
sS'2HCK:sp|P08631.5|HCK_HUMAN'
p712
I526
sS'4RJ5:sp|P00533.2|EGFR_HUMAN'
p713
I1210
sS'2FO0:sp|P00519.4|ABL1_HUMAN'
p714
I1130
sS'4GIH:sp|P29597.3|TYK2_HUMAN'
p715
I1187
sS'5C8M:sp|P00533.2|EGFR_HUMAN'
p716
I1210
sS'3VS2:sp|P08631.5|HCK_HUMAN'
p717
I526
sS'4KSQ:sp|P15056.4|BRAF_HUMAN'
p718
I766
sS'4LL0:sp|P00533.2|EGFR_HUMAN'
p719
I1210
sS'3V5J:sp|Q08881.1|ITK_HUMAN'
p720
I620
sS'4L53:sp|Q15750.1|TAB1_HUMAN'
p721
I504
sS'2Y6O:sp|Q03137.2|EPHA4_MOUSE'
p722
I986
sS'2HZ0:sp|P00519.4|ABL1_HUMAN'
p723
I1130
sS'3IK3:sp|P00520.3|ABL1_MOUSE'
p724
I1123
sS'4E5W:sp|P23458.2|JAK1_HUMAN'
p725
I1154
sS'4QPS:sp|P52333.2|JAK3_HUMAN'
p726
I1124
sS'3HGK:sp|Q8RSY1.1|HPAB2_PSESM'
p727
I553
sS'4J96:sp|P21802.1|FGFR2_HUMAN'
p728
I821
sS'4TPT:sp|P53671.1|LIMK2_HUMAN'
p729
I638
sS'4HCU:sp|Q08881.1|ITK_HUMAN'
p730
I620
sS'2YJR:sp|Q9UM73.3|ALK_HUMAN'
p731
I1620
sS'4D4R:sp|Q00944.2|FAK1_CHICK'
p732
I1053
sS'4RT7:sp|P36888.2|FLT3_HUMAN'
p733
I993
sS'3OMV:sp|P04049.1|RAF1_HUMAN'
p734
I648
sS'4D2R:sp|P08069.1|IGF1R_HUMAN'
p735
I1367
sS'4HVH:sp|P52333.2|JAK3_HUMAN'
p736
I1124
sS'3TV4:sp|P15056.4|BRAF_HUMAN'
p737
I766
sS'3ZOS:sp|Q08345.1|DDR1_HUMAN'
p738
I913
sS'4ANS:sp|Q9UM73.3|ALK_HUMAN'
p739
I1620
sS'4YTH:sp|O60674.2|JAK2_HUMAN'
p740
I1132
sS'3ZC5:sp|P08581.4|MET_HUMAN'
p741
I1390
sS'3VHE:sp|P35968.2|VGFR2_HUMAN'
p742
I1356
sS'4AT5:sp|Q16620.1|NTRK2_HUMAN'
p743
I822
sS'2BDJ:sp|P12931.3|SRC_HUMAN'
p744
I536
sS'4FVQ:sp|O60674.2|JAK2_HUMAN'
p745
I1132
sS'2ZM1:sp|P06239.6|LCK_HUMAN'
p746
I509
sS'2F4J:sp|P00519.4|ABL1_HUMAN'
p747
I1130
sS'2O8Y:sp|Q9NWZ3.1|IRAK4_HUMAN'
p748
I460
sS'3TUC:sp|P43405.1|KSYK_HUMAN'
p749
I635
sS'2HWP:sp|P00523.4|SRC_CHICK'
p750
I533
sS'5BVK:sp|Q08345.1|DDR1_HUMAN'
p751
I913
sS'2JKM:sp|Q00944.2|FAK1_CHICK'
p752
I1053
sS'1FPU:sp|P00520.3|ABL1_MOUSE'
p753
I1123
sS'4BTF:sp|Q9D2Y4.1|MLKL_MOUSE'
p754
I472
sS'4C62:sp|O60674.2|JAK2_HUMAN'
p755
I1132
sS'4DBN:sp|P15056.4|BRAF_HUMAN'
p756
I766
sS'3LVP:sp|P08069.1|IGF1R_HUMAN'
p757
I1367
sS'5CF6:sp|O60674.2|JAK2_HUMAN'
p758
I1132
sS'2FGI:sp|P11362.3|FGFR1_HUMAN'
p759
I822
sS'2FB8:sp|P15056.4|BRAF_HUMAN'
p760
I766
sS'4FL3:sp|P43405.1|KSYK_HUMAN'
p761
I635
sS'4JQ7:sp|P00533.2|EGFR_HUMAN'
p762
I1210
sS'5A4C:sp|P11362.3|FGFR1_HUMAN'
p763
I822
sS'4QD6:sp|Q08881.1|ITK_HUMAN'
p764
I620
sS'2X2K:sp|P07949.3|RET_HUMAN'
p765
I1114
sS'4NKA:sp|P11362.3|FGFR1_HUMAN'
p766
I822
sS'1VQL:sp|P12734.2|RL21_HALMA'
p767
I96
sS'2QO7:sp|P29320.2|EPHA3_HUMAN'
p768
I983
sS'4TYG:sp|P22455.2|FGFR4_HUMAN'
p769
I802
sS'5CZH:sp|P00533.2|EGFR_HUMAN'
p770
I1210
sS'5CF4:sp|O60674.2|JAK2_HUMAN'
p771
I1132
sS'4M3Q:sp|Q12866.2|MERTK_HUMAN'
p772
I999
sS'2OID:sp|Q9NWZ3.1|IRAK4_HUMAN'
p773
I460
sS'2VWY:sp|P54760.2|EPHB4_HUMAN'
p774
I987
sS'1YVJ:sp|P52333.2|JAK3_HUMAN'
p775
I1124
sS'3SXS:sp|P51813.1|BMX_HUMAN'
p776
I675
sS'4I24:sp|P00533.2|EGFR_HUMAN'
p777
I1210
sS'3UQF:sp|P00523.4|SRC_CHICK'
p778
I533
sS'4UEU:pdb|4UEU|A'
p779
I275
sS'4XS2:sp|Q9NWZ3.1|IRAK4_HUMAN'
p780
I460
sS'3EN5:sp|P00523.4|SRC_CHICK'
p781
I533
sS'4ZLY:sp|Q06187.3|BTK_HUMAN'
p782
I659
sS'3VJN:sp|P00533.2|EGFR_HUMAN'
p783
I1210
sS'4M67:sp|Q8NB16.1|MLKL_HUMAN'
p784
I471
sS'2OH4:sp|P35968.2|VGFR2_HUMAN'
p785
I1356
sS'2RFE:sp|P00533.2|EGFR_HUMAN'
p786
I1210
sS'4HJO:sp|P00533.2|EGFR_HUMAN'
p787
I1210
sS'3EN6:sp|P00523.4|SRC_CHICK'
p788
I533
sS'2XA4:sp|O60674.2|JAK2_HUMAN'
p789
I1132
sS'5CAU:sp|P00533.2|EGFR_HUMAN'
p790
I1210
sS'4CKI:sp|P07949.3|RET_HUMAN'
p791
I1114
sS'5CEQ:sp|Q12852.2|M3K12_HUMAN'
p792
I859
sS'4NKS:sp|P11362.3|FGFR1_HUMAN'
p793
I822
sS'4PV0:sp|P43405.1|KSYK_HUMAN'
p794
I635
sS'3PSD:sp|P15056.4|BRAF_HUMAN'
p795
I766
sS'3Q6U:sp|P08581.4|MET_HUMAN'
p796
I1390
sS'2EVA:sp|O43318.1|M3K7_HUMAN'
p797
I606
sS'4TWO:sp|P29320.2|EPHA3_HUMAN'
p798
I983
sS'4F64:sp|P11362.3|FGFR1_HUMAN'
p799
I822
sS'2H8H:sp|P12931.3|SRC_HUMAN'
p800
I536
sS'3RCD:sp|P04626.1|ERBB2_HUMAN'
p801
I1255
sS'1VQM:sp|P12734.2|RL21_HALMA'
p802
I96
sS'3DQX:sp|P00523.4|SRC_CHICK'
p803
I533
sS'2YN8:sp|P54760.2|EPHB4_HUMAN'
p804
I987
sS'5C27:sp|P43405.1|KSYK_HUMAN'
p805
I635
sS'4PX6:sp|P43405.1|KSYK_HUMAN'
p806
I635
sS'3U4W:sp|P00523.4|SRC_CHICK'
p807
I533
sS'2B7A:sp|O60674.2|JAK2_HUMAN'
p808
I1132
sS'4LI5:sp|P00533.2|EGFR_HUMAN'
p809
I1210
sS'5BPY:sp|Q06187.3|BTK_HUMAN'
p810
I659
sS'4Q9S:pdb|4Q9S|A'
p811
I281
sS'4PY1:sp|P29597.3|TYK2_HUMAN'
p812
I1187
sS'4GU9:sp|Q05397.2|FAK1_HUMAN'
p813
I1052
sS'2PWL:sp|P21802.1|FGFR2_HUMAN'
p814
I821
sS'4HVG:sp|P52333.2|JAK3_HUMAN'
p815
I1124
sS'3VJO:sp|P00533.2|EGFR_HUMAN'
p816
I1210
sS'3ZMM:sp|O60674.2|JAK2_HUMAN'
p817
I1132
sS'2QKW:pdb|2QKW|B'
p818
I321
sS'4R5S:sp|P00533.2|EGFR_HUMAN'
p819
I1210
sS'2J0K:sp|Q00944.2|FAK1_CHICK'
p820
I1053
sS'3PXK:sp|Q05397.2|FAK1_HUMAN'
p821
I1052
sS'2ETM:sp|Q05397.2|FAK1_HUMAN'
p822
I1052
sS'4JI9:sp|O60674.2|JAK2_HUMAN'
p823
I1132
sS'5CXH:sp|P43405.1|KSYK_HUMAN'
p824
I635
sS'4BKJ:sp|Q08345.1|DDR1_HUMAN'
p825
I913
sS'4TT7:sp|Q9UM73.3|ALK_HUMAN'
p826
I1620
sS'2PZR:sp|P21802.1|FGFR2_HUMAN'
p827
I821
sS'3SXR:sp|P51813.1|BMX_HUMAN'
p828
I675
sS'3NW5:sp|P08069.1|IGF1R_HUMAN'
p829
I1367
sS'3F66:sp|P08581.4|MET_HUMAN'
p830
I1390
sS'3PIX:sp|Q06187.3|BTK_HUMAN'
p831
I659
sS'4MHA:sp|Q12866.2|MERTK_HUMAN'
p832
I999
sS'4DFN:sp|P43405.1|KSYK_HUMAN'
p833
I635
sS'2PTK:pdb|2PTK|'
p834
I453
sS'5C01:sp|P29597.3|TYK2_HUMAN'
p835
I1187
sS'2P4I:sp|Q02763.2|TIE2_HUMAN'
p836
I1124
sS'3PPK:sp|P15056.4|BRAF_HUMAN'
p837
I766
sS'4YJS:sp|P43405.1|KSYK_HUMAN'
p838
I635
sS'2OGV:sp|P07333.2|CSF1R_HUMAN'
p839
I972
sS'3AC3:sp|P06239.6|LCK_HUMAN'
p840
I509
sS'2OJ9:sp|P08069.1|IGF1R_HUMAN'
p841
I1367
sS'4QQC:sp|P22455.2|FGFR4_HUMAN'
p842
I802
sS'2AUH:sp|Q14449.2|GRB14_HUMAN'
p843
I540
sS'4C61:sp|O60674.2|JAK2_HUMAN'
p844
I1132
sS'2QOL:sp|P29320.2|EPHA3_HUMAN'
p845
I983
sS'4QQ5:sp|P22455.2|FGFR4_HUMAN'
p846
I802
sS'4OTW:sp|P21860.1|ERBB3_HUMAN'
p847
I1342
sS'4L52:sp|O43318.1|M3K7_HUMAN'
p848
I606
sS'3FUP:sp|O60674.2|JAK2_HUMAN'
p849
I1132
sS'1RJB:sp|P36888.2|FLT3_HUMAN'
p850
I993
sS'1M1G:sp|O67757.1|NUSG_AQUAE'
p851
I248
sS'4YZV:sp|Q7A225.1|HIGB_PROVU'
p852
I92
sS'4OT5:sp|Q06187.3|BTK_HUMAN'
p853
I659
sS'3CTH:sp|P08581.4|MET_HUMAN'
p854
I1390
sS'5CT7:sp|P15056.4|BRAF_HUMAN'
p855
I766
sS'4AOI:sp|P08581.4|MET_HUMAN'
p856
I1390
sS'4CNH:sp|Q9UM73.3|ALK_HUMAN'
p857
I1620
sS'4HVS:sp|P10721.1|KIT_HUMAN'
p858
I976
sS'4DFL:sp|P43405.1|KSYK_HUMAN'
p859
I635
sS'3D7T:sp|P00523.4|SRC_CHICK'
p860
I533
sS'4YP8:sp|Q9NWZ3.1|IRAK4_HUMAN'
p861
I460
sS'3VS6:sp|P08631.5|HCK_HUMAN'
p862
I526
sS'4HCV:sp|Q08881.1|ITK_HUMAN'
p863
I620
sS'3V5L:sp|Q08881.1|ITK_HUMAN'
p864
I620
sS'4H58:sp|P15056.4|BRAF_HUMAN'
p865
I766
sS'1M52:sp|P00520.3|ABL1_MOUSE'
p866
I1123
sS'3E63:sp|O60674.2|JAK2_HUMAN'
p867
I1132
sS'4D0W:sp|O60674.2|JAK2_HUMAN'
p868
I1132
sS'4TRL:pdb|4TRL|A'
p869
I299
sS'3CJF:sp|P35968.2|VGFR2_HUMAN'
p870
I1356
sS'1OPL:sp|P00519.4|ABL1_HUMAN'
p871
I1130
sS'1SNU:sp|Q08881.1|ITK_HUMAN'
p872
I620
sS'3VRY:sp|P08631.5|HCK_HUMAN'
p873
I526
sS'5AM7:sp|P11362.3|FGFR1_HUMAN'
p874
I822
sS'3DZQ:sp|P29320.2|EPHA3_HUMAN'
p875
I983
sS'2ITT:sp|P00533.2|EGFR_HUMAN'
p876
I1210
sS'4CMO:sp|Q9UM73.3|ALK_HUMAN'
p877
I1620
sS'2R4B:sp|Q15303.1|ERBB4_HUMAN'
p878
I1308
sS'1VQ8:sp|P12734.2|RL21_HALMA'
p879
I96
sS'1YI6:sp|P12931.3|SRC_HUMAN'
p880
I536
sS'2IVV:sp|P07949.3|RET_HUMAN'
p881
I1114
sS'2PVY:sp|P21802.1|FGFR2_HUMAN'
p882
I821
sS'2E2B:sp|P00519.4|ABL1_HUMAN'
p883
I1130
sS'4YFF:sp|Q59H18.3|TNI3K_HUMAN'
p884
I835
sS'2J28:sp|P0AGD7.1|SRP54_ECOLI'
p885
I453
sS'2OO8:sp|Q02763.2|TIE2_HUMAN'
p886
I1124
sS'2ZM3:sp|P08069.1|IGF1R_HUMAN'
p887
I1367
sS'3OCT:sp|Q06187.3|BTK_HUMAN'
p888
I659
sS'4E93:sp|P07332.3|FES_HUMAN'
p889
I822
sS'4XYF:sp|P08581.4|MET_HUMAN'
p890
I1390
sS'2J0J:sp|Q00944.2|FAK1_CHICK'
p891
I1053
sS'4K11:sp|P12931.3|SRC_HUMAN'
p892
I536
sS'1VQ9:sp|P12734.2|RL21_HALMA'
p893
I96
sS'3V8T:sp|Q08881.1|ITK_HUMAN'
p894
I620
sS'5AM6:sp|P11362.3|FGFR1_HUMAN'
p895
I822
sS'4E1Z:sp|Q9R117.2|TYK2_MOUSE'
p896
I1180
sS'4V8J:sp|Q5SHZ1.1|RL25_THET8'
p897
I206
sS'3IKA:sp|P00533.2|EGFR_HUMAN'
p898
I1210
sS'4FYN:sp|P43405.1|KSYK_HUMAN'
p899
I635
sS'4K77:sp|P23458.2|JAK1_HUMAN'
p900
I1154
sS'1XBP:sp|Q9RY64.2|RL21_DEIRA'
p901
I100
sS'5AR3:sp|O43353.2|RIPK2_HUMAN'
p902
I540
sS'3ZBF:sp|P08922.3|ROS1_HUMAN'
p903
I2347
sS'4P2K:sp|P29317.2|EPHA2_HUMAN'
p904
I976
sS'3NW7:sp|P08069.1|IGF1R_HUMAN'
p905
I1367
sS'3V5Q:sp|Q16288.2|NTRK3_HUMAN'
p906
I839
sS'1OPK:sp|P00520.3|ABL1_MOUSE'
p907
I1123
sS'1KSW:sp|P12931.3|SRC_HUMAN'
p908
I536
sS'3VS5:sp|P08631.5|HCK_HUMAN'
p909
I526
sS'3BCE:sp|Q15303.1|ERBB4_HUMAN'
p910
I1308
sS'1U46:sp|Q07912.3|ACK1_HUMAN'
p911
I1038
sS'4MWI:sp|Q8NB16.1|MLKL_HUMAN'
p912
I471
sS'2XVD:sp|P54760.2|EPHB4_HUMAN'
p913
I987
sS'1XBB:sp|P43405.1|KSYK_HUMAN'
p914
I635
sS'1YOL:sp|P12931.3|SRC_HUMAN'
p915
I536
sS'3GQL:sp|P11362.3|FGFR1_HUMAN'
p916
I822
sS'2DQ7:sp|P06241.3|FYN_HUMAN'
p917
I537
sS'3ZFX:sp|P54762.1|EPHB1_HUMAN'
p918
I984
sS'5C8K:sp|P00533.2|EGFR_HUMAN'
p919
I1210
sS'3F6X:sp|P00523.4|SRC_CHICK'
p920
I533
sS'4P5Q:sp|P29320.2|EPHA3_HUMAN'
p921
I983
sS'1U4D:sp|Q07912.3|ACK1_HUMAN'
p922
I1038
sS'4E4L:sp|P23458.2|JAK1_HUMAN'
p923
I1154
sS'4L00:sp|P23458.2|JAK1_HUMAN'
p924
I1154
sS'3KF4:sp|P00520.3|ABL1_MOUSE'
p925
I1123
sS'2PZP:sp|P21802.1|FGFR2_HUMAN'
p926
I821
sS'3S95:sp|P53667.3|LIMK1_HUMAN'
p927
I647
sS'2VX1:sp|P54760.2|EPHB4_HUMAN'
p928
I987
sS'3ZFM:sp|P29323.5|EPHB2_HUMAN'
p929
I1055
sS'2I1M:sp|P07333.2|CSF1R_HUMAN'
p930
I972
sS'3RHK:sp|P08581.4|MET_HUMAN'
p931
I1390
sS'5CZI:sp|P29353.4|SHC1_HUMAN'
p932
I583
sS'4CMU:sp|Q9UM73.3|ALK_HUMAN'
p933
I1620
sS'3IOK:sp|O60674.2|JAK2_HUMAN'
p934
I1132
sS'2C0I:sp|P08631.5|HCK_HUMAN'
p935
I526
sS'3G5D:sp|P00523.4|SRC_CHICK'
p936
I533
sS'3GQI:sp|P10686.1|PLCG1_RAT'
p937
I1290
sS'3AC1:sp|P06239.6|LCK_HUMAN'
p938
I509
sS'4GFM:sp|O60674.2|JAK2_HUMAN'
p939
I1132
sS'4GK4:sp|P29320.2|EPHA3_HUMAN'
p940
I983
sS'3ZFY:sp|P54753.2|EPHB3_HUMAN'
p941
I998
sS'4I21:sp|P00533.2|EGFR_HUMAN'
p942
I1210
sS'3BYU:sp|P06239.6|LCK_HUMAN'
p943
I509
sS'4OTR:sp|Q06187.3|BTK_HUMAN'
p944
I659
sS'2ZV8:sp|P25911.4|LYN_MOUSE'
p945
I512
sS'4DEG:sp|P08581.4|MET_HUMAN'
p946
I1390
sS'3DK3:sp|P00520.3|ABL1_MOUSE'
p947
I1123
sS'5CNN:sp|P00533.2|EGFR_HUMAN'
p948
I1210
sS'2HZN:sp|P00520.3|ABL1_MOUSE'
p949
I1123
sS'4PUZ:sp|P43405.1|KSYK_HUMAN'
p950
I635
sS'3C1X:sp|P08581.4|MET_HUMAN'
p951
I1390
sS'3DPK:sp|P07333.2|CSF1R_HUMAN'
p952
I972
sS'4CSV:pdb|4CSV|A'
p953
I275
sS'3JY9:sp|O60674.2|JAK2_HUMAN'
p954
I1132
sS'3MPM:sp|P06239.6|LCK_HUMAN'
p955
I509
sS'3DK7:sp|P00520.3|ABL1_MOUSE'
p956
I1123
sS'3SVV:sp|P00523.4|SRC_CHICK'
p957
I533
sS'4I4F:sp|Q05397.2|FAK1_HUMAN'
p958
I1052
sS'3FZR:sp|Q14289.2|FAK2_HUMAN'
p959
I1009
sS'5CEN:sp|Q12852.2|M3K12_HUMAN'
p960
I859
sS'4YJO:sp|P43405.1|KSYK_HUMAN'
p961
I635
sS'2G2I:sp|P00519.4|ABL1_HUMAN'
p962
I1130
sS'1I44:sp|P06213.4|INSR_HUMAN'
p963
I1382
sS'2JIT:sp|P00533.2|EGFR_HUMAN'
p964
I1210
sS'5AFI:sp|P0CE48.1|EFTU2_ECOLI'
p965
I394
sS'4V8H:sp|Q5SHZ1.1|RL25_THET8'
p966
I206
sS'4OTF:sp|Q06187.3|BTK_HUMAN'
p967
I659
sS'5AR7:sp|O43353.2|RIPK2_HUMAN'
p968
I540
sS'4MH7:sp|Q12866.2|MERTK_HUMAN'
p969
I999
sS'4XV3:sp|P15056.4|BRAF_HUMAN'
p970
I766
sS'4FOC:sp|Q9UM73.3|ALK_HUMAN'
p971
I1620
sS'3B8R:sp|P35968.2|VGFR2_HUMAN'
p972
I1356
sS'1K9A:sp|P32577.1|CSK_RAT'
p973
I450
sS'2IVU:sp|P07949.3|RET_HUMAN'
p974
I1114
sS'2XB7:sp|Q9UM73.3|ALK_HUMAN'
p975
I1620
sS'4C8B:sp|O43353.2|RIPK2_HUMAN'
p976
I540
sS'3FZO:sp|Q14289.2|FAK2_HUMAN'
p977
I1009
sS'4XEY:sp|P00519.4|ABL1_HUMAN'
p978
I1130
sS'3TL8:sp|Q94F62.2|BAK1_ARATH'
p979
I615
sS'3D4Q:sp|P15056.4|BRAF_HUMAN'
p980
I766
sS'5CAL:sp|P00533.2|EGFR_HUMAN'
p981
I1210
sS'3MJ1:sp|Q08881.1|ITK_HUMAN'
p982
I620
sS'4HVI:sp|P52333.2|JAK3_HUMAN'
p983
I1124
sS'4EEV:sp|P08581.4|MET_HUMAN'
p984
I1390
sS'3C7Q:sp|P35968.2|VGFR2_HUMAN'
p985
I1356
sS'1VQ7:sp|P12734.2|RL21_HALMA'
p986
I96
sS'4PMP:sp|P04629.4|NTRK1_HUMAN'
p987
I796
sS'4CTC:sp|Q9UM73.3|ALK_HUMAN'
p988
I1620
sS'2RL5:sp|P35968.2|VGFR2_HUMAN'
p989
I1356
sS'4J95:sp|P21802.1|FGFR2_HUMAN'
p990
I821
sS'1SNX:sp|Q08881.1|ITK_HUMAN'
p991
I620
sS'5C8N:sp|P00533.2|EGFR_HUMAN'
p992
I1210
sS'4WPO:sp|A0A0N0BLS5.1|RS17_THEAQ'
p993
I105
sS'3W33:sp|P00533.2|EGFR_HUMAN'
p994
I1210
sS'4I92:sp|Q9FHD7.1|Y5126_ARATH'
p995
I487
sS'4RX9:sp|P43405.1|KSYK_HUMAN'
p996
I635
sS'3GT8:sp|P00533.2|EGFR_HUMAN'
p997
I1210
sS'3L9P:sp|Q9UM73.3|ALK_HUMAN'
p998
I1620
sS'4UWY:sp|P11362.3|FGFR1_HUMAN'
p999
I822
sS'4F0F:sp|Q6XHB2.1|ROCO4_DICDI'
p1000
I1726
sS'1IRK:pdb|1IRK|'
p1001
I306
sS'4AGD:sp|P35968.2|VGFR2_HUMAN'
p1002
I1356
sS'2IJM:sp|Q05397.2|FAK1_HUMAN'
p1003
I1052
sS'2EB3:sp|P00533.2|EGFR_HUMAN'
p1004
I1210
sS'4HGE:sp|O60674.2|JAK2_HUMAN'
p1005
I1132
sS'4RX7:sp|P43405.1|KSYK_HUMAN'
p1006
I635
sS'4LGH:sp|P00523.4|SRC_CHICK'
p1007
I533
sS'3ACK:sp|P06239.6|LCK_HUMAN'
p1008
I509
sS'4YFI:sp|Q59H18.3|TNI3K_HUMAN'
p1009
I835
sS'4V8N:sp|Q5SHZ1.1|RL25_THET8'
p1010
I206
sS'3EN4:sp|P00523.4|SRC_CHICK'
p1011
I533
sS'4YJR:sp|P43405.1|KSYK_HUMAN'
p1012
I635
sS'3AC8:sp|P06239.6|LCK_HUMAN'
p1013
I509
sS'3KXX:sp|P11362.3|FGFR1_HUMAN'
p1014
I822
sS'1FGI:sp|P11362.3|FGFR1_HUMAN'
p1015
I822
sS'4JVG:sp|P15056.4|BRAF_HUMAN'
p1016
I766
sS'4FIC:sp|P00523.4|SRC_CHICK'
p1017
I533
sS'4M68:sp|Q9D2Y4.1|MLKL_MOUSE'
p1018
I472
sS'2C0T:sp|P08631.5|HCK_HUMAN'
p1019
I526
sS'4R1V:sp|P08581.4|MET_HUMAN'
p1020
I1390
sS'4RSS:sp|P43405.1|KSYK_HUMAN'
p1021
I635
sS'3UQG:sp|P00523.4|SRC_CHICK'
p1022
I533
sS'4OT6:sp|Q06187.3|BTK_HUMAN'
p1023
I659
sS'4NWM:sp|Q06187.3|BTK_HUMAN'
p1024
I659
sS'4M15:sp|Q08881.1|ITK_HUMAN'
p1025
I620
sS'4DEH:sp|P08581.4|MET_HUMAN'
p1026
I1390
sS'4F1O:sp|Q6XHB2.1|ROCO4_DICDI'
p1027
I1726
sS'2XYN:sp|P42684.1|ABL2_HUMAN'
p1028
I1182
sS'5AEP:sp|O60674.2|JAK2_HUMAN'
p1029
I1132
sS'1GAG:sp|P06213.4|INSR_HUMAN'
p1030
I1382
sS'3CBL:sp|P07332.3|FES_HUMAN'
p1031
I822
sS'2J5F:sp|P00533.2|EGFR_HUMAN'
p1032
I1210
sS'3F3W:sp|P00523.4|SRC_CHICK'
p1033
I533
sS'3LXL:sp|P52333.2|JAK3_HUMAN'
p1034
I1124
sS'2OIC:sp|Q9NWZ3.1|IRAK4_HUMAN'
p1035
I460
sS'3LOK:sp|P00523.4|SRC_CHICK'
p1036
I533
sS'2OSC:sp|Q02763.2|TIE2_HUMAN'
p1037
I1124
sS'4HZR:sp|Q07912.3|ACK1_HUMAN'
p1038
I1038
sS'3B2W:sp|P06239.6|LCK_HUMAN'
p1039
I509
sS'4D4V:sp|Q00944.2|FAK1_CHICK'
p1040
I1053
sS'1UWJ:sp|P15056.4|BRAF_HUMAN'
p1041
I766
sS'4DGG:sp|P00523.4|SRC_CHICK'
p1042
I533
sS'4K6Z:sp|P23458.2|JAK1_HUMAN'
p1043
I1154
sS'3CPC:sp|P35968.2|VGFR2_HUMAN'
p1044
I1356
sS'5CEO:sp|Q12852.2|M3K12_HUMAN'
p1045
I859
sS'2YIY:sp|Q15750.1|TAB1_HUMAN'
p1046
I504
sS'3OG7:sp|P15056.4|BRAF_HUMAN'
p1047
I766
sS'1YOM:sp|P12931.3|SRC_HUMAN'
p1048
I536
sS'4UXL:sp|P08922.3|ROS1_HUMAN'
p1049
I2347
sS'2HEL:sp|Q03137.2|EPHA4_MOUSE'
p1050
I986
sS'3TJC:sp|O60674.2|JAK2_HUMAN'
p1051
I1132
sS'5CY3:sp|P43405.1|KSYK_HUMAN'
p1052
I635
sS'2B4S:sp|P18031.1|PTN1_HUMAN'
p1053
I435
sS'4GII:sp|P29597.3|TYK2_HUMAN'
p1054
I1187
sS'4LRM:sp|P00533.2|EGFR_HUMAN'
p1055
I1210
sS'3EMG:sp|P43405.1|KSYK_HUMAN'
p1056
I635
sS'3I81:sp|P08069.1|IGF1R_HUMAN'
p1057
I1367
s.