(dp1
S'4QIW:sp|Q5JE31.1|RPOH_THEKO'
p2
I82
sS'4ZH3:sp|P0A8V2.1|RPOB_ECOLI'
p3
I1342
sS'4ZH2:sp|P0A8V2.1|RPOB_ECOLI'
p4
I1342
sS'1Y77:sp|P08518.2|RPB2_YEAST'
p5
I1224
sS'2Y0S:pdb|2Y0S|Z'
p6
I84
sS'4A3B:sp|P08518.2|RPB2_YEAST'
p7
I1224
sS'1HQM:sp|Q9KWU7.1|RPOB_THEAQ'
p8
I1119
sS'4BBS:sp|P08518.2|RPB2_YEAST'
p9
I1224
sS'5C4J:sp|P08518.2|RPB2_YEAST'
p10
I1224
sS'1PQV:sp|P08518.2|RPB2_YEAST'
p11
I1224
sS'4OIQ:sp|Q8RQE9.1|RPOB_THET8'
p12
I1119
sS'1R9S:sp|P08518.2|RPB2_YEAST'
p13
I1224
sS'3DXJ:sp|Q8RQE9.1|RPOB_THET8'
p14
I1119
sS'4BBR:sp|P08518.2|RPB2_YEAST'
p15
I1224
sS'1IW7:sp|Q8RQE9.1|RPOB_THET8'
p16
I1119
sS'1SMY:sp|Q8RQE9.1|RPOB_THET8'
p17
I1119
sS'3S1M:sp|P08518.2|RPB2_YEAST'
p18
I1224
sS'3HOY:sp|P08518.2|RPB2_YEAST'
p19
I1224
sS'3GTQ:sp|P08518.2|RPB2_YEAST'
p20
I1224
sS'3RZO:sp|P08518.2|RPB2_YEAST'
p21
I1224
sS'2E2H:sp|P08518.2|RPB2_YEAST'
p22
I1224
sS'4LK1:sp|P00579.2|RPOD_ECOLI'
p23
I613
sS'1I3Q:sp|P08518.2|RPB2_YEAST'
p24
I1224
sS'3WOD:sp|Q8RQE9.1|RPOB_THET8'
p25
I1119
sS'3AOI:sp|Q8RQE9.1|RPOB_THET8'
p26
I1119
sS'2BE5:sp|Q8RQE9.1|RPOB_THET8'
p27
I1119
sS'3K7A:sp|P08518.2|RPB2_YEAST'
p28
I1224
sS'4YFK:sp|A7ZTK1.1|RPOZ_ECO24'
p29
I91
sS'3HKZ:sp|Q97ZX7.1|RPOP_SULSO'
p30
I48
sS'4XSY:sp|P0A8V2.1|RPOB_ECOLI'
p31
I1342
sS'2E2I:sp|P08518.2|RPB2_YEAST'
p32
I1224
sS'3IYD:sp|P0ACJ8.1|CRP_ECOLI'
p33
I210
sS'4WQS:sp|Q8RQE9.1|RPOB_THET8'
p34
I1119
sS'4Q5S:sp|Q8RQE9.1|RPOB_THET8'
p35
I1119
sS'2NVQ:sp|P08518.2|RPB2_YEAST'
p36
I1224
sS'1TWC:sp|P08518.2|RPB2_YEAST'
p37
I1224
sS'3HOX:sp|P08518.2|RPB2_YEAST'
p38
I1224
sS'4OIP:sp|Q8RQE9.1|RPOB_THET8'
p39
I1119
sS'3S2D:sp|P08518.2|RPB2_YEAST'
p40
I1224
sS'2R92:sp|P08518.2|RPB2_YEAST'
p41
I1224
sS'1I6V:sp|Q9KWU7.1|RPOB_THEAQ'
p42
I1119
sS'4V1M:sp|P08518.2|RPB2_YEAST'
p43
I1224
sS'1I50:sp|P08518.2|RPB2_YEAST'
p44
I1224
sS'4Y52:sp|P08518.2|RPB2_YEAST'
p45
I1224
sS'2A68:sp|Q8RQE9.1|RPOB_THET8'
p46
I1119
sS'4XSX:sp|P0A8V2.1|RPOB_ECOLI'
p47
I1342
sS'1K83:sp|P85421.1|AMATX_AMAPH'
p48
I8
sS'2R7Z:sp|P08518.2|RPB2_YEAST'
p49
I1224
sS'1R9T:sp|P08518.2|RPB2_YEAST'
p50
I1224
sS'3S15:sp|P08518.2|RPB2_YEAST'
p51
I1224
sS'3GTO:sp|P08518.2|RPB2_YEAST'
p52
I1224
sS'4YLN:sp|P0A8V2.1|RPOB_ECOLI'
p53
I1342
sS'4XAX:sp|Q9KWU7.1|RPOB_THEAQ'
p54
I1119
sS'4JK1:sp|P0A8V2.1|RPOB_ECOLI'
p55
I1342
sS'3I4N:sp|P08518.2|RPB2_YEAST'
p56
I1224
sS'3J0K:sp|P08518.2|RPB2_YEAST'
p57
I1224
sS'4A3L:sp|P08518.2|RPB2_YEAST'
p58
I1224
sS'3S1R:sp|P08518.2|RPB2_YEAST'
p59
I1224
sS'4BXX:sp|P08518.2|RPB2_YEAST'
p60
I1224
sS'2NVY:sp|P08518.2|RPB2_YEAST'
p61
I1224
sS'2JA6:sp|P08518.2|RPB2_YEAST'
p62
I1224
sS'2A69:sp|Q8RQE9.1|RPOB_THET8'
p63
I1119
sS'3PO3:sp|P08518.2|RPB2_YEAST'
p64
I1224
sS'2B63:sp|P08518.2|RPB2_YEAST'
p65
I1224
sS'2PMZ:sp|Q97ZX7.1|RPOP_SULSO'
p66
I48
sS'1TWG:sp|P08518.2|RPB2_YEAST'
p67
I1224
sS'4LLG:sp|P00579.2|RPOD_ECOLI'
p68
I613
sS'4GZZ:sp|Q8RQE9.1|RPOB_THET8'
p69
I1119
sS'4BY7:sp|P08518.2|RPB2_YEAST'
p70
I1224
sS'4KBJ:sp|P9WGY9.1|RPOB_MYCTU'
p71
I1178
sS'4BXZ:sp|P08518.2|RPB2_YEAST'
p72
I1224
sS'3GTL:sp|P08518.2|RPB2_YEAST'
p73
I1224
sS'5BYH:sp|P0A8V2.1|RPOB_ECOLI'
p74
I1342
sS'1Y1V:sp|P08518.2|RPB2_YEAST'
p75
I1224
sS'3MLQ:sp|Q9KWU7.1|RPOB_THEAQ'
p76
I1119
sS'1I6H:sp|P08518.2|RPB2_YEAST'
p77
I1224
sS'1L9U:sp|Q9EZJ8.1|SIGA_THEAQ'
p78
I438
sS'3GTK:sp|P08518.2|RPB2_YEAST'
p79
I1224
sS'4JK2:sp|P0A8V2.1|RPOB_ECOLI'
p80
I1342
sS'4XLQ:sp|Q9EZJ8.1|SIGA_THEAQ'
p81
I438
sS'1TWA:sp|P08518.2|RPB2_YEAST'
p82
I1224
sS'3EQL:sp|Q8RQE9.1|RPOB_THET8'
p83
I1119
sS'3LU0:sp|P0A8V2.1|RPOB_ECOLI'
p84
I1342
sS'3FKI:sp|P08518.2|RPB2_YEAST'
p85
I1224
sS'2YU9:sp|P08518.2|RPB2_YEAST'
p86
I1224
sS'2A6E:sp|Q8RQE9.1|RPOB_THET8'
p87
I1119
sS'2JA8:sp|P08518.2|RPB2_YEAST'
p88
I1224
sS'2WB1:pdb|2WB1|Z'
p89
I84
sS'2CW0:sp|Q8RQE9.1|RPOB_THET8'
p90
I1119
sS'3RZD:sp|P08518.2|RPB2_YEAST'
p91
I1224
sS'4OIR:sp|Q8RQE9.1|RPOB_THET8'
p92
I1119
sS'4MQ9:sp|Q8RQE9.1|RPOB_THET8'
p93
I1119
sS'4YFN:sp|A7ZTK1.1|RPOZ_ECO24'
p94
I91
sS'4A3K:sp|P08518.2|RPB2_YEAST'
p95
I1224
sS'1SFO:sp|P08518.2|RPB2_YEAST'
p96
I1224
sS'5C4X:sp|P08518.2|RPB2_YEAST'
p97
I1224
sS'2GHO:sp|Q9KWU7.1|RPOB_THEAQ'
p98
I1119
sS'4A3C:sp|P08518.2|RPB2_YEAST'
p99
I1224
sS'4KN7:sp|P0A8V2.1|RPOB_ECOLI'
p100
I1342
sS'4V1N:sp|P13393.3|TBP_YEAST'
p101
I240
sS'4OIN:sp|Q8RQE9.1|RPOB_THET8'
p102
I1119
sS'3H3V:sp|P08518.2|RPB2_YEAST'
p103
I1224
sS'2PPB:sp|Q8RQE9.1|RPOB_THET8'
p104
I1119
sS'3M3Y:sp|P08518.2|RPB2_YEAST'
p105
I1224
sS'3M4O:sp|P08518.2|RPB2_YEAST'
p106
I1224
sS'2B8K:sp|P08518.2|RPB2_YEAST'
p107
I1224
sS'4JKR:sp|P00579.2|RPOD_ECOLI'
p108
I613
sS'2O5I:sp|Q8RQE9.1|RPOB_THET8'
p109
I1119
sS'2NVX:sp|P08518.2|RPB2_YEAST'
p110
I1224
sS'3PO2:sp|P08518.2|RPB2_YEAST'
p111
I1224
sS'1WCM:sp|P08518.2|RPB2_YEAST'
p112
I1224
sS'3I4M:sp|P08518.2|RPB2_YEAST'
p113
I1224
sS'3QT1:sp|Q04307.1|RPC10_YEAST'
p114
I110
sS'4G7O:sp|Q8RQE9.1|RPOB_THET8'
p115
I1119
sS'4XLN:sp|Q9EZJ8.1|SIGA_THEAQ'
p116
I438
sS'4Q4Z:sp|Q8RQE9.1|RPOB_THET8'
p117
I1119
sS'4Y7N:sp|P08518.2|RPB2_YEAST'
p118
I1224
sS'1ZYR:sp|Q8RQE9.1|RPOB_THET8'
p119
I1119
sS'1YNN:sp|Q9KWU7.1|RPOB_THEAQ'
p120
I1119
sS'3GTP:sp|P08518.2|RPB2_YEAST'
p121
I1224
sS'4XLR:sp|Q9EZJ8.1|SIGA_THEAQ'
p122
I438
sS'4BY1:sp|P08518.2|RPB2_YEAST'
p123
I1224
sS'1YNJ:sp|Q9KWU7.1|RPOB_THEAQ'
p124
I1119
sS'3S2H:sp|P08518.2|RPB2_YEAST'
p125
I1224
sS'4AYB:pdb|4AYB|Q'
p126
I104
sS'1NT9:sp|P08518.2|RPB2_YEAST'
p127
I1224
sS'3HOU:sp|P08518.2|RPB2_YEAST'
p128
I1224
sS'4KMU:sp|P0A8V2.1|RPOB_ECOLI'
p129
I1342
sS'3S1N:sp|P08518.2|RPB2_YEAST'
p130
I1224
sS'1TWH:sp|P08518.2|RPB2_YEAST'
p131
I1224
sS'2VUM:sp|P85421.1|AMATX_AMAPH'
p132
I8
sS'1Y1Y:sp|P08518.2|RPB2_YEAST'
p133
I1224
sS'4XLP:sp|Q9EZJ8.1|SIGA_THEAQ'
p134
I438
sS'4V1O:sp|P13393.3|TBP_YEAST'
p135
I240
sS'4YLO:sp|P0A8V2.1|RPOB_ECOLI'
p136
I1342
sS'4XSZ:sp|P0A8V2.1|RPOB_ECOLI'
p137
I1342
sS'4X6A:sp|P08518.2|RPB2_YEAST'
p138
I1224
sS'4C3H:sp|P46669.2|RPA43_YEAST'
p139
I326
sS'4MEX:sp|P0A8V2.1|RPOB_ECOLI'
p140
I1342
sS'4A3I:sp|P08518.2|RPB2_YEAST'
p141
I1224
sS'3HOZ:sp|P08518.2|RPB2_YEAST'
p142
I1224
sS'2NVZ:sp|P08518.2|RPB2_YEAST'
p143
I1224
sS'4X67:sp|P08518.2|RPB2_YEAST'
p144
I1224
sS'3GTJ:sp|P08518.2|RPB2_YEAST'
p145
I1224
sS'3J1N:sp|P08518.2|RPB2_YEAST'
p146
I1224
sS'3K1F:sp|P08518.2|RPB2_YEAST'
p147
I1224
sS'4G7Z:sp|Q8RQE9.1|RPOB_THET8'
p148
I1119
sS'4A3D:sp|P08518.2|RPB2_YEAST'
p149
I1224
sS'3AOH:sp|Q8RQE9.1|RPOB_THET8'
p150
I1119
sS'3CQZ:sp|P85421.1|AMATX_AMAPH'
p151
I8
sS'2A6H:sp|Q8RQE9.1|RPOB_THET8'
p152
I1119
sS'2R93:sp|P08518.2|RPB2_YEAST'
p153
I1224
sS'3S14:sp|P08518.2|RPB2_YEAST'
p154
I1224
sS'3HOV:sp|P08518.2|RPB2_YEAST'
p155
I1224
sS'1R5U:sp|P08518.2|RPB2_YEAST'
p156
I1224
sS'4S20:sp|P0A8V2.1|RPOB_ECOLI'
p157
I1342
sS'3GTG:sp|P08518.2|RPB2_YEAST'
p158
I1224
sS'2JA5:sp|P08518.2|RPB2_YEAST'
p159
I1224
sS'4KN4:sp|P0A8V2.1|RPOB_ECOLI'
p160
I1342
sS'2JA7:sp|P08518.2|RPB2_YEAST'
p161
I1224
sS'4C2M:sp|P46669.2|RPA43_YEAST'
p162
I326
sS'3HOW:sp|P08518.2|RPB2_YEAST'
p163
I1224
sS'3S1Q:sp|P08518.2|RPB2_YEAST'
p164
I1224
sS'2WAQ:pdb|2WAQ|Q'
p165
I104
sS'4A3J:sp|P08518.2|RPB2_YEAST'
p166
I1224
sS'4LK0:sp|P00579.2|RPOD_ECOLI'
p167
I613
sS'3S17:sp|P08518.2|RPB2_YEAST'
p168
I1224
sS'4YG2:sp|P0A8V2.1|RPOB_ECOLI'
p169
I1342
sS'2O5J:sp|Q8RQE9.1|RPOB_THET8'
p170
I1119
sS'4KBM:sp|P9WJG3.1|CARD_MYCTU'
p171
I162
sS'5C4A:sp|P08518.2|RPB2_YEAST'
p172
I1224
sS'1L9Z:sp|Q9EZJ8.1|SIGA_THEAQ'
p173
I438
sS'4MEY:sp|P0A8V2.1|RPOB_ECOLI'
p174
I1342
sS'4A3M:sp|P08518.2|RPB2_YEAST'
p175
I1224
sS'4C3I:sp|P46669.2|RPA43_YEAST'
p176
I326
sS'4YM7:sp|P46669.2|RPA43_YEAST'
p177
I326
sS'4ZH4:sp|P0A8V2.1|RPOB_ECOLI'
p178
I1342
sS'4YFX:sp|A7ZTK1.1|RPOZ_ECO24'
p179
I91
sS'4A93:sp|P08518.2|RPB2_YEAST'
p180
I1224
sS'1Y1W:sp|P08518.2|RPB2_YEAST'
p181
I1224
sS'3H0G:sp|Q02061.2|RPB2_SCHPO'
p182
I1210
sS'4XLS:pdb|4XLS|N'
p183
I164
sS'2NVT:sp|P08518.2|RPB2_YEAST'
p184
I1224
sS'1TWF:sp|P08518.2|RPB2_YEAST'
p185
I1224
sS'5C44:sp|P08518.2|RPB2_YEAST'
p186
I1224
sS'4YLP:sp|P0A8V2.1|RPOB_ECOLI'
p187
I1342
sS'4C3J:sp|P46669.2|RPA43_YEAST'
p188
I326
sS'4OIO:sp|Q8RQE9.1|RPOB_THET8'
p189
I1119
sS'4WQT:sp|Q8RQE9.1|RPOB_THET8'
p190
I1119
sS'3GTM:sp|P08518.2|RPB2_YEAST'
p191
I1224
sS'4LJZ:sp|P00579.2|RPOD_ECOLI'
p192
I613
sS'3S16:sp|P08518.2|RPB2_YEAST'
p193
I1224
s.