(lp1
I431
aI55
aI431
aI55
aI438
aI438
aI431
aI55
aI431
aI55
aI431
aI55
aI421
aI421
aI421
aI421
aI421
aI421
aI421
aI421
aI431
aI55
aI431
aI55
aI438
aI438
aI431
aI55
aI431
aI55
aI431
aI55
aI421
aI421
aI421
aI421
aI421
aI421
aI421
aI421
aI431
aI55
aI431
aI55
aI438
aI438
aI431
aI55
aI431
aI55
aI431
aI55
aI421
aI421
aI421
aI421
aI421
aI421
aI421
aI421
aI407
aI407
aI407
aI407
aI407
aI407
aI407
aI407
aI461
aI461
aI461
aI461
aI461
aI411
aI28
aI411
aI28
aI431
aI55
aI431
aI55
aI438
aI438
aI431
aI55
aI431
aI55
aI431
aI55
aI421
aI421
aI421
aI421
aI421
aI421
aI421
aI421
aI526
aI526
aI526
aI526
aI526
aI526
aI526
aI526
aI526
aI526
aI526
aI526
aI526
aI526
aI526
aI526
aI526
aI526
aI526
aI526
aI526
aI526
aI526
aI526
aI526
aI526
aI526
aI526
aI526
aI526
aI526
aI526
aI526
aI526
aI526
aI526
aI526
aI526
aI526
aI526
aI526
aI526
aI526
aI526
aI526
aI526
aI526
aI526
aI526
aI526
aI423
aI423
aI421
aI421
aI421
aI420
aI420
aI420
aI420
aI420
aI420
aI420
aI420
aI423
aI423
aI526
aI526
aI526
aI526
aI526
aI526
aI526
aI526
aI526
aI526
aI526
aI526
aI526
aI526
aI526
aI526
aI526
aI526
aI526
aI526
aI526
aI526
aI526
aI526
aI526
aI526
aI526
aI526
aI526
aI526
aI526
aI526
aI526
aI526
aI526
aI526
aI526
aI526
aI526
aI526
aI526
aI526
aI526
aI526
aI526
aI526
aI526
aI526
aI526
aI526
aI423
aI423
aI421
aI421
aI421
aI420
aI420
aI420
aI420
aI420
aI420
aI420
aI420
aI423
aI423
aI526
aI526
aI526
aI526
aI526
aI526
aI526
aI526
aI526
aI526
aI526
aI526
aI526
aI526
aI526
aI526
aI526
aI526
aI526
aI526
aI526
aI526
aI526
aI526
aI526
aI526
aI526
aI526
aI526
aI526
aI526
aI526
aI526
aI526
aI526
aI526
aI526
aI526
aI526
aI526
aI526
aI526
aI526
aI526
aI526
aI526
aI526
aI526
aI526
aI526
aI423
aI423
aI421
aI421
aI421
aI420
aI420
aI420
aI420
aI420
aI420
aI420
aI420
aI423
aI423
aI407
aI407
aI407
aI407
aI407
aI407
aI407
aI407
aI461
aI461
aI461
aI461
aI461
aI411
aI28
aI411
aI28
aI526
aI526
aI526
aI526
aI526
aI526
aI526
aI526
aI526
aI526
aI526
aI526
aI526
aI526
aI526
aI526
aI526
aI526
aI526
aI526
aI526
aI526
aI526
aI526
aI526
aI526
aI526
aI526
aI526
aI526
aI526
aI526
aI526
aI526
aI526
aI526
aI526
aI526
aI526
aI526
aI526
aI526
aI526
aI526
aI526
aI526
aI526
aI526
aI526
aI526
aI423
aI423
aI421
aI421
aI421
aI420
aI420
aI420
aI420
aI420
aI420
aI420
aI420
aI423
aI423
aI431
aI55
aI431
aI55
aI438
aI438
aI431
aI55
aI431
aI55
aI431
aI55
aI421
aI421
aI421
aI421
aI421
aI421
aI421
aI421
aI407
aI407
aI407
aI407
aI407
aI407
aI407
aI407
aI461
aI461
aI461
aI461
aI461
aI411
aI28
aI411
aI28
aI407
aI407
aI407
aI407
aI407
aI407
aI407
aI407
aI461
aI461
aI461
aI461
aI461
aI411
aI28
aI411
aI28
aI407
aI407
aI407
aI407
aI407
aI407
aI407
aI407
aI461
aI461
aI461
aI461
aI461
aI411
aI28
aI411
aI28
aI529
aI529
aI529
aI529
aI529
aI529
aI529
aI529
aI529
aI529
aI529
aI529
aI529
aI529
aI529
aI529
aI529
aI529
aI529
aI529
aI529
aI529
aI529
aI529
aI529
aI529
aI529
aI529
aI529
aI529
aI529
aI529
aI529
aI529
aI529
aI529
aI529
aI529
aI529
aI529
aI529
aI529
aI529
aI529
aI529
aI529
aI529
aI529
aI529
aI529
aI432
aI432
aI432
aI432
aI432
aI440
aI440
aI424
aI424
aI424
aI424
aI424
aI424
aI424
aI424
aI526
aI526
aI526
aI526
aI526
aI526
aI526
aI526
aI526
aI526
aI526
aI526
aI526
aI526
aI526
aI526
aI526
aI526
aI526
aI526
aI526
aI526
aI526
aI526
aI526
aI526
aI526
aI526
aI526
aI526
aI526
aI526
aI526
aI526
aI526
aI526
aI526
aI526
aI526
aI526
aI526
aI526
aI526
aI526
aI526
aI526
aI526
aI526
aI526
aI526
aI423
aI423
aI421
aI421
aI421
aI420
aI420
aI420
aI420
aI420
aI420
aI420
aI420
aI423
aI423
aI529
aI529
aI529
aI529
aI529
aI529
aI529
aI529
aI529
aI529
aI529
aI529
aI529
aI529
aI529
aI529
aI529
aI529
aI529
aI529
aI529
aI529
aI529
aI529
aI529
aI529
aI529
aI529
aI529
aI529
aI529
aI529
aI529
aI529
aI529
aI529
aI529
aI529
aI529
aI529
aI529
aI529
aI529
aI529
aI529
aI529
aI529
aI529
aI529
aI529
aI432
aI432
aI432
aI432
aI432
aI440
aI440
aI424
aI424
aI424
aI424
aI424
aI424
aI424
aI424
aI526
aI526
aI526
aI526
aI526
aI526
aI526
aI526
aI526
aI526
aI526
aI526
aI526
aI526
aI526
aI526
aI526
aI526
aI526
aI526
aI526
aI526
aI526
aI526
aI526
aI526
aI526
aI526
aI526
aI526
aI526
aI526
aI526
aI526
aI526
aI526
aI526
aI526
aI526
aI526
aI526
aI526
aI526
aI526
aI526
aI526
aI526
aI526
aI526
aI526
aI423
aI423
aI421
aI421
aI421
aI420
aI420
aI420
aI420
aI420
aI420
aI420
aI420
aI423
aI423
aI407
aI407
aI407
aI407
aI407
aI407
aI407
aI407
aI461
aI461
aI461
aI461
aI461
aI411
aI28
aI411
aI28
aI526
aI526
aI526
aI526
aI526
aI526
aI526
aI526
aI526
aI526
aI526
aI526
aI526
aI526
aI526
aI526
aI526
aI526
aI526
aI526
aI526
aI526
aI526
aI526
aI526
aI526
aI526
aI526
aI526
aI526
aI526
aI526
aI526
aI526
aI526
aI526
aI526
aI526
aI526
aI526
aI526
aI526
aI526
aI526
aI526
aI526
aI526
aI526
aI526
aI526
aI423
aI423
aI421
aI421
aI421
aI420
aI420
aI420
aI420
aI420
aI420
aI420
aI420
aI423
aI423
aI433
aI433
aI433
aI433
aI433
aI433
aI433
aI433
aI433
aI433
aI433
aI433
aI433
aI433
aI433
aI433
aI423
aI423
aI423
aI423
aI423
aI423
aI423
aI423
aI423
aI423
aI423
aI423
aI423
aI423
aI423
aI423
aI423
aI423
aI423
aI423
aI423
aI423
aI423
aI423
aI423
aI423
aI423
aI423
aI423
aI423
aI423
aI423
aI423
aI423
aI423
aI423
aI423
aI423
aI423
aI423
aI423
aI423
aI423
aI423
aI423
aI424
aI423
aI423
aI423
aI423
aI424
aI424
aI424
aI424
aI424
aI424
aI424
aI424
aI424
aI424
aI424
aI424
aI424
aI424
aI424
aI424
aI424
aI433
aI433
aI433
aI433
aI433
aI433
aI433
aI433
aI433
aI433
aI433
aI433
aI433
aI433
aI433
aI433
aI423
aI423
aI423
aI423
aI423
aI423
aI423
aI423
aI423
aI423
aI423
aI423
aI423
aI423
aI423
aI423
aI423
aI423
aI423
aI423
aI423
aI423
aI423
aI423
aI423
aI423
aI423
aI423
aI423
aI423
aI423
aI423
aI423
aI423
aI423
aI423
aI423
aI423
aI423
aI423
aI423
aI423
aI423
aI423
aI423
aI424
aI423
aI423
aI423
aI423
aI424
aI424
aI424
aI424
aI424
aI424
aI424
aI424
aI424
aI424
aI424
aI424
aI424
aI424
aI424
aI424
aI424
aI407
aI407
aI407
aI407
aI407
aI407
aI407
aI407
aI461
aI461
aI461
aI461
aI461
aI411
aI28
aI411
aI28
aI407
aI407
aI407
aI407
aI407
aI407
aI407
aI407
aI461
aI461
aI461
aI461
aI461
aI411
aI28
aI411
aI28
aI431
aI55
aI431
aI55
aI438
aI438
aI431
aI55
aI431
aI55
aI431
aI55
aI421
aI421
aI421
aI421
aI421
aI421
aI421
aI421
aI407
aI407
aI407
aI407
aI407
aI407
aI407
aI407
aI461
aI461
aI461
aI461
aI461
aI411
aI28
aI411
aI28
aI407
aI407
aI407
aI407
aI407
aI407
aI407
aI407
aI461
aI461
aI461
aI461
aI461
aI411
aI28
aI411
aI28
aI407
aI407
aI407
aI407
aI407
aI407
aI407
aI407
aI461
aI461
aI461
aI461
aI461
aI411
aI28
aI411
aI28
aI431
aI55
aI431
aI55
aI438
aI438
aI431
aI55
aI431
aI55
aI431
aI55
aI421
aI421
aI421
aI421
aI421
aI421
aI421
aI421
aI431
aI55
aI431
aI55
aI438
aI438
aI431
aI55
aI431
aI55
aI431
aI55
aI421
aI421
aI421
aI421
aI421
aI421
aI421
aI421
aI431
aI55
aI431
aI55
aI431
aI55
aI431
aI55
aI431
aI55
aI431
aI55
aI431
aI55
aI431
aI55
aI431
aI55
aI431
aI55
aI431
aI55
aI431
aI55
aI431
aI55
aI431
aI55
aI431
aI55
aI431
aI55
aI432
aI432
aI461
aI461
aI461
aI461
aI461
aI461
aI461
aI461
aI461
aI461
aI461
aI461
aI461
aI461
aI461
aI461
aI461
aI461
aI461
aI461
aI461
aI461
aI461
aI461
aI461
aI461
aI461
aI461
aI461
aI461
aI461
aI461
aI461
aI461
aI461
aI461
aI461
aI461
aI461
aI461
aI461
aI461
aI461
aI461
aI461
aI461
aI461
aI461
aI461
aI461
aI423
aI423
aI423
aI423
aI423
aI423
aI423
aI423
aI423
aI423
aI423
aI423
aI423
aI423
aI423
aI407
aI407
aI407
aI407
aI407
aI407
aI407
aI407
aI461
aI461
aI461
aI461
aI461
aI411
aI28
aI411
aI28
aI433
aI433
aI433
aI433
aI433
aI433
aI433
aI433
aI433
aI433
aI433
aI433
aI433
aI433
aI433
aI433
aI423
aI423
aI423
aI423
aI423
aI423
aI423
aI423
aI423
aI423
aI423
aI423
aI423
aI423
aI423
aI423
aI423
aI423
aI423
aI423
aI423
aI423
aI423
aI423
aI423
aI423
aI423
aI423
aI423
aI423
aI423
aI423
aI423
aI423
aI423
aI423
aI423
aI423
aI423
aI423
aI423
aI423
aI423
aI423
aI423
aI424
aI423
aI423
aI423
aI423
aI424
aI424
aI424
aI424
aI424
aI424
aI424
aI424
aI424
aI424
aI424
aI424
aI424
aI424
aI424
aI424
aI424
aI407
aI407
aI407
aI407
aI407
aI407
aI407
aI407
aI461
aI461
aI461
aI461
aI461
aI411
aI28
aI411
aI28
aI407
aI407
aI407
aI407
aI407
aI407
aI407
aI407
aI461
aI461
aI461
aI461
aI461
aI411
aI28
aI411
aI28
aI407
aI407
aI407
aI407
aI407
aI407
aI407
aI407
aI461
aI461
aI461
aI461
aI461
aI411
aI28
aI411
aI28
aI407
aI407
aI407
aI407
aI407
aI407
aI407
aI407
aI461
aI461
aI461
aI461
aI461
aI411
aI28
aI411
aI28
aI431
aI55
aI431
aI55
aI438
aI438
aI431
aI55
aI431
aI55
aI431
aI55
aI421
aI421
aI421
aI421
aI421
aI421
aI421
aI421
aI407
aI407
aI407
aI407
aI407
aI407
aI407
aI407
aI461
aI461
aI461
aI461
aI461
aI411
aI28
aI411
aI28
aI431
aI55
aI431
aI55
aI431
aI55
aI431
aI55
aI431
aI55
aI438
aI438
aI421
aI421
aI421
aI421
aI421
aI421
aI421
aI421
aI407
aI407
aI407
aI407
aI407
aI407
aI407
aI407
aI461
aI461
aI461
aI461
aI461
aI411
aI28
aI411
aI28
aI438
aI438
aI438
aI438
aI438
aI438
aI438
aI438
aI438
aI438
aI438
aI438
aI438
aI438
aI438
aI438
aI411
aI28
aI411
aI28
aI411
aI28
aI411
aI28
aI411
aI28
aI411
aI28
aI411
aI28
aI411
aI28
aI411
aI28
aI411
aI28
aI411
aI28
aI411
aI28
aI411
aI28
aI411
aI28
aI411
aI28
aI411
aI28
aI411
aI28
aI411
aI28
aI411
aI28
aI411
aI28
aI411
aI28
aI411
aI28
aI411
aI28
aI411
aI28
aI411
aI28
aI411
aI28
aI411
aI28
aI411
aI28
aI411
aI28
aI411
aI28
aI411
aI28
aI411
aI28
aI411
aI28
aI411
aI28
aI411
aI28
aI411
aI28
aI411
aI28
aI411
aI28
aI411
aI28
aI411
aI28
aI411
aI28
aI411
aI28
aI440
aI440
aI411
aI28
aI411
aI28
aI411
aI28
aI411
aI28
aI411
aI28
aI411
aI28
aI411
aI28
aI411
aI28
aI423
aI423
aI423
aI423
aI423
aI423
aI423
aI423
aI423
aI423
aI423
aI423
aI423
aI423
aI423
aI407
aI407
aI407
aI407
aI407
aI407
aI407
aI407
aI461
aI461
aI461
aI461
aI461
aI411
aI28
aI411
aI28
aI407
aI407
aI407
aI407
aI407
aI407
aI407
aI407
aI461
aI461
aI461
aI461
aI461
aI411
aI28
aI411
aI28
aI407
aI407
aI407
aI407
aI407
aI407
aI407
aI407
aI461
aI461
aI461
aI461
aI461
aI411
aI28
aI411
aI28
aI433
aI433
aI433
aI433
aI433
aI433
aI433
aI433
aI433
aI433
aI433
aI433
aI433
aI433
aI433
aI433
aI423
aI423
aI423
aI423
aI423
aI423
aI423
aI423
aI423
aI423
aI423
aI423
aI423
aI423
aI423
aI423
aI423
aI423
aI423
aI423
aI423
aI423
aI423
aI423
aI423
aI423
aI423
aI423
aI423
aI423
aI423
aI423
aI423
aI423
aI423
aI423
aI423
aI423
aI423
aI423
aI423
aI423
aI423
aI423
aI423
aI424
aI423
aI423
aI423
aI423
aI424
aI424
aI424
aI424
aI424
aI424
aI424
aI424
aI424
aI424
aI424
aI424
aI424
aI424
aI424
aI424
aI424
aI433
aI433
aI433
aI433
aI433
aI433
aI433
aI433
aI433
aI433
aI433
aI433
aI433
aI433
aI433
aI433
aI423
aI423
aI423
aI423
aI423
aI423
aI423
aI423
aI423
aI423
aI423
aI423
aI423
aI423
aI423
aI423
aI423
aI423
aI423
aI423
aI423
aI423
aI423
aI423
aI423
aI423
aI423
aI423
aI423
aI423
aI423
aI423
aI423
aI423
aI423
aI423
aI423
aI423
aI423
aI423
aI423
aI423
aI423
aI423
aI423
aI424
aI423
aI423
aI423
aI423
aI424
aI424
aI424
aI424
aI424
aI424
aI424
aI424
aI424
aI424
aI424
aI424
aI424
aI424
aI424
aI424
aI424
aI431
aI55
aI431
aI55
aI438
aI438
aI431
aI55
aI431
aI55
aI431
aI55
aI421
aI421
aI421
aI421
aI421
aI421
aI421
aI421
aI433
aI433
aI433
aI433
aI433
aI433
aI433
aI433
aI433
aI433
aI433
aI433
aI433
aI433
aI433
aI433
aI423
aI423
aI423
aI423
aI423
aI423
aI423
aI423
aI423
aI423
aI423
aI423
aI423
aI423
aI423
aI423
aI423
aI423
aI423
aI423
aI423
aI423
aI423
aI423
aI423
aI423
aI423
aI423
aI423
aI423
aI423
aI423
aI423
aI423
aI423
aI423
aI423
aI423
aI423
aI423
aI423
aI423
aI423
aI423
aI423
aI424
aI423
aI423
aI423
aI423
aI424
aI424
aI424
aI424
aI424
aI424
aI424
aI424
aI424
aI424
aI424
aI424
aI424
aI424
aI424
aI424
aI424
aI407
aI407
aI407
aI407
aI407
aI407
aI407
aI407
aI461
aI461
aI461
aI461
aI461
aI411
aI28
aI411
aI28
aI407
aI407
aI407
aI407
aI407
aI407
aI407
aI407
aI461
aI461
aI461
aI461
aI461
aI411
aI28
aI411
aI28
aI407
aI407
aI407
aI407
aI407
aI407
aI407
aI407
aI461
aI461
aI461
aI461
aI461
aI411
aI28
aI411
aI28
aI407
aI407
aI407
aI407
aI407
aI407
aI407
aI407
aI461
aI461
aI461
aI461
aI461
aI411
aI28
aI411
aI28
aI526
aI526
aI526
aI526
aI526
aI526
aI526
aI526
aI526
aI526
aI526
aI526
aI526
aI526
aI526
aI526
aI526
aI526
aI526
aI526
aI526
aI526
aI526
aI526
aI526
aI526
aI526
aI526
aI526
aI526
aI526
aI526
aI526
aI526
aI526
aI526
aI526
aI526
aI526
aI526
aI526
aI526
aI526
aI526
aI526
aI526
aI526
aI526
aI526
aI526
aI423
aI423
aI421
aI421
aI421
aI420
aI420
aI420
aI420
aI420
aI420
aI420
aI420
aI423
aI423
aI431
aI55
aI431
aI55
aI438
aI438
aI431
aI55
aI431
aI55
aI431
aI55
aI421
aI421
aI421
aI421
aI421
aI421
aI421
aI421
aI407
aI407
aI407
aI407
aI407
aI407
aI407
aI407
aI461
aI461
aI461
aI461
aI461
aI411
aI28
aI411
aI28
aI433
aI433
aI433
aI433
aI433
aI433
aI433
aI433
aI433
aI433
aI433
aI433
aI433
aI433
aI433
aI433
aI423
aI423
aI423
aI423
aI423
aI423
aI423
aI423
aI423
aI423
aI423
aI423
aI423
aI423
aI423
aI423
aI423
aI423
aI423
aI423
aI423
aI423
aI423
aI423
aI423
aI423
aI423
aI423
aI423
aI423
aI423
aI423
aI423
aI423
aI423
aI423
aI423
aI423
aI423
aI423
aI423
aI423
aI423
aI423
aI423
aI424
aI423
aI423
aI423
aI423
aI424
aI424
aI424
aI424
aI424
aI424
aI424
aI424
aI424
aI424
aI424
aI424
aI424
aI424
aI424
aI424
aI424
aI431
aI55
aI431
aI55
aI438
aI438
aI431
aI55
aI431
aI55
aI431
aI55
aI421
aI421
aI421
aI421
aI421
aI421
aI421
aI421
aI526
aI526
aI526
aI526
aI526
aI526
aI526
aI526
aI526
aI526
aI526
aI526
aI526
aI526
aI526
aI526
aI526
aI526
aI526
aI526
aI526
aI526
aI526
aI526
aI526
aI526
aI526
aI526
aI526
aI526
aI526
aI526
aI526
aI526
aI526
aI526
aI526
aI526
aI526
aI526
aI526
aI526
aI526
aI526
aI526
aI526
aI526
aI526
aI526
aI526
aI423
aI423
aI421
aI421
aI421
aI420
aI420
aI420
aI420
aI420
aI420
aI420
aI420
aI423
aI423
aI407
aI407
aI407
aI407
aI407
aI407
aI407
aI407
aI461
aI461
aI461
aI461
aI461
aI411
aI28
aI411
aI28
aI407
aI407
aI407
aI407
aI407
aI407
aI407
aI407
aI461
aI461
aI461
aI461
aI461
aI411
aI28
aI411
aI28
aI407
aI407
aI407
aI407
aI407
aI407
aI407
aI407
aI461
aI461
aI461
aI461
aI461
aI411
aI28
aI411
aI28
aI407
aI407
aI407
aI407
aI407
aI407
aI407
aI407
aI461
aI461
aI461
aI461
aI461
aI411
aI28
aI411
aI28
aI407
aI407
aI407
aI407
aI407
aI407
aI407
aI407
aI461
aI461
aI461
aI461
aI461
aI411
aI28
aI411
aI28
aI407
aI407
aI407
aI407
aI407
aI407
aI407
aI407
aI461
aI461
aI461
aI461
aI461
aI411
aI28
aI411
aI28
aI407
aI407
aI407
aI407
aI407
aI407
aI407
aI407
aI461
aI461
aI461
aI461
aI461
aI411
aI28
aI411
aI28
aI407
aI407
aI407
aI407
aI407
aI407
aI407
aI407
aI461
aI461
aI461
aI461
aI461
aI411
aI28
aI411
aI28
aI407
aI407
aI407
aI407
aI407
aI407
aI407
aI407
aI461
aI461
aI461
aI461
aI461
aI411
aI28
aI411
aI28
aI407
aI407
aI407
aI407
aI407
aI407
aI407
aI407
aI461
aI461
aI461
aI461
aI461
aI411
aI28
aI411
aI28
aI407
aI407
aI407
aI407
aI407
aI407
aI407
aI407
aI461
aI461
aI461
aI461
aI461
aI411
aI28
aI411
aI28
aI526
aI526
aI526
aI526
aI526
aI526
aI526
aI526
aI526
aI526
aI526
aI526
aI526
aI526
aI526
aI526
aI526
aI526
aI526
aI526
aI526
aI526
aI526
aI526
aI526
aI526
aI526
aI526
aI526
aI526
aI526
aI526
aI526
aI526
aI526
aI526
aI526
aI526
aI526
aI526
aI526
aI526
aI526
aI526
aI526
aI526
aI526
aI526
aI526
aI526
aI423
aI423
aI421
aI421
aI421
aI420
aI420
aI420
aI420
aI420
aI420
aI420
aI420
aI423
aI423
aI526
aI526
aI526
aI526
aI526
aI526
aI526
aI526
aI526
aI526
aI526
aI526
aI526
aI526
aI526
aI526
aI526
aI526
aI526
aI526
aI526
aI526
aI526
aI526
aI526
aI526
aI526
aI526
aI526
aI526
aI526
aI526
aI526
aI526
aI526
aI526
aI526
aI526
aI526
aI526
aI526
aI526
aI526
aI526
aI526
aI526
aI526
aI526
aI526
aI526
aI423
aI423
aI421
aI421
aI421
aI420
aI420
aI420
aI420
aI420
aI420
aI420
aI420
aI423
aI423
aI526
aI526
aI526
aI526
aI526
aI526
aI526
aI526
aI526
aI526
aI526
aI526
aI526
aI526
aI526
aI526
aI526
aI526
aI526
aI526
aI526
aI526
aI526
aI526
aI526
aI526
aI526
aI526
aI526
aI526
aI526
aI526
aI526
aI526
aI526
aI526
aI526
aI526
aI526
aI526
aI526
aI526
aI526
aI526
aI526
aI526
aI526
aI526
aI526
aI526
aI423
aI423
aI421
aI421
aI421
aI420
aI420
aI420
aI420
aI420
aI420
aI420
aI420
aI423
aI423
aI407
aI407
aI407
aI407
aI407
aI407
aI407
aI407
aI461
aI461
aI461
aI461
aI461
aI411
aI28
aI411
aI28
aI407
aI407
aI407
aI407
aI407
aI407
aI407
aI407
aI461
aI461
aI461
aI461
aI461
aI411
aI28
aI411
aI28
aI407
aI407
aI407
aI407
aI407
aI407
aI407
aI407
aI461
aI461
aI461
aI461
aI461
aI411
aI28
aI411
aI28
aI526
aI526
aI526
aI526
aI526
aI526
aI526
aI526
aI526
aI526
aI526
aI526
aI526
aI526
aI526
aI526
aI526
aI526
aI526
aI526
aI526
aI526
aI526
aI526
aI526
aI526
aI526
aI526
aI526
aI526
aI526
aI526
aI526
aI526
aI526
aI526
aI526
aI526
aI526
aI526
aI526
aI526
aI526
aI526
aI526
aI526
aI526
aI526
aI526
aI526
aI423
aI423
aI421
aI421
aI421
aI420
aI420
aI420
aI420
aI420
aI420
aI420
aI420
aI423
aI423
aI407
aI407
aI407
aI407
aI407
aI407
aI407
aI407
aI461
aI461
aI461
aI461
aI461
aI411
aI28
aI411
aI28
aI407
aI407
aI407
aI407
aI407
aI407
aI407
aI407
aI461
aI461
aI461
aI461
aI461
aI411
aI28
aI411
aI28
aI526
aI526
aI526
aI526
aI526
aI526
aI526
aI526
aI526
aI526
aI526
aI526
aI526
aI526
aI526
aI526
aI526
aI526
aI526
aI526
aI526
aI526
aI526
aI526
aI526
aI526
aI526
aI526
aI526
aI526
aI526
aI526
aI526
aI526
aI526
aI526
aI526
aI526
aI526
aI526
aI526
aI526
aI526
aI526
aI526
aI526
aI526
aI526
aI526
aI526
aI423
aI423
aI421
aI421
aI421
aI420
aI420
aI420
aI420
aI420
aI420
aI420
aI420
aI423
aI423
aI407
aI407
aI407
aI407
aI407
aI407
aI407
aI407
aI461
aI461
aI461
aI461
aI461
aI411
aI28
aI411
aI28
aI431
aI55
aI431
aI55
aI438
aI438
aI431
aI55
aI431
aI55
aI431
aI55
aI421
aI421
aI421
aI421
aI421
aI421
aI421
aI421
aI431
aI55
aI431
aI55
aI431
aI55
aI431
aI55
aI431
aI55
aI431
aI55
aI431
aI55
aI431
aI55
aI431
aI55
aI431
aI55
aI431
aI55
aI431
aI55
aI431
aI55
aI431
aI55
aI431
aI55
aI431
aI55
aI432
aI432
aI461
aI461
aI461
aI461
aI461
aI461
aI461
aI461
aI461
aI461
aI461
aI461
aI461
aI461
aI461
aI461
aI461
aI461
aI461
aI461
aI461
aI461
aI461
aI461
aI461
aI461
aI461
aI461
aI461
aI461
aI461
aI461
aI461
aI461
aI461
aI461
aI461
aI461
aI461
aI461
aI461
aI461
aI461
aI461
aI461
aI461
aI461
aI461
aI461
aI461
aI421
aI421
aI421
aI421
aI421
aI421
aI421
aI421
aI421
aI421
aI421
aI421
aI421
aI421
aI421
aI431
aI55
aI431
aI55
aI438
aI438
aI431
aI55
aI431
aI55
aI431
aI55
aI421
aI421
aI421
aI421
aI421
aI421
aI421
aI421
aI407
aI407
aI407
aI407
aI407
aI407
aI407
aI407
aI461
aI461
aI461
aI461
aI461
aI411
aI28
aI411
aI28
aI438
aI438
aI438
aI438
aI438
aI438
aI438
aI438
aI438
aI438
aI438
aI438
aI438
aI438
aI438
aI438
aI411
aI28
aI411
aI28
aI411
aI28
aI411
aI28
aI411
aI28
aI411
aI28
aI411
aI28
aI411
aI28
aI411
aI28
aI411
aI28
aI411
aI28
aI411
aI28
aI411
aI28
aI411
aI28
aI411
aI28
aI411
aI28
aI411
aI28
aI411
aI28
aI411
aI28
aI411
aI28
aI411
aI28
aI411
aI28
aI411
aI28
aI411
aI28
aI411
aI28
aI411
aI28
aI411
aI28
aI411
aI28
aI411
aI28
aI411
aI28
aI411
aI28
aI411
aI28
aI411
aI28
aI411
aI28
aI411
aI28
aI411
aI28
aI411
aI28
aI411
aI28
aI411
aI28
aI411
aI28
aI411
aI28
aI411
aI28
aI440
aI440
aI411
aI28
aI411
aI28
aI411
aI28
aI411
aI28
aI411
aI28
aI411
aI28
aI411
aI28
aI411
aI28
aI423
aI423
aI423
aI423
aI423
aI423
aI423
aI423
aI423
aI423
aI423
aI423
aI423
aI423
aI423
aI431
aI55
aI431
aI55
aI438
aI438
aI431
aI55
aI431
aI55
aI431
aI55
aI421
aI421
aI421
aI421
aI421
aI421
aI421
aI421
aI407
aI407
aI407
aI407
aI407
aI407
aI407
aI407
aI461
aI461
aI461
aI461
aI461
aI411
aI28
aI411
aI28
aI433
aI433
aI433
aI433
aI433
aI433
aI433
aI433
aI433
aI433
aI433
aI433
aI433
aI433
aI433
aI433
aI423
aI423
aI423
aI423
aI423
aI423
aI423
aI423
aI423
aI423
aI423
aI423
aI423
aI423
aI423
aI423
aI423
aI423
aI423
aI423
aI423
aI423
aI423
aI423
aI423
aI423
aI423
aI423
aI423
aI423
aI423
aI423
aI423
aI423
aI423
aI423
aI423
aI423
aI423
aI423
aI423
aI423
aI423
aI423
aI423
aI424
aI423
aI423
aI423
aI423
aI424
aI424
aI424
aI424
aI424
aI424
aI424
aI424
aI424
aI424
aI424
aI424
aI424
aI424
aI424
aI424
aI424
aI431
aI55
aI431
aI55
aI431
aI55
aI431
aI55
aI431
aI55
aI431
aI55
aI431
aI55
aI431
aI55
aI431
aI55
aI431
aI55
aI431
aI55
aI431
aI55
aI431
aI55
aI431
aI55
aI431
aI55
aI431
aI55
aI432
aI432
aI461
aI461
aI461
aI461
aI461
aI461
aI461
aI461
aI461
aI461
aI461
aI461
aI461
aI461
aI461
aI461
aI461
aI461
aI461
aI461
aI461
aI461
aI461
aI461
aI461
aI461
aI461
aI461
aI461
aI461
aI461
aI461
aI461
aI461
aI461
aI461
aI461
aI461
aI461
aI461
aI461
aI461
aI461
aI461
aI461
aI461
aI461
aI461
aI461
aI461
aI423
aI423
aI423
aI423
aI423
aI423
aI423
aI423
aI423
aI423
aI423
aI423
aI423
aI423
aI423
aI526
aI526
aI526
aI526
aI526
aI526
aI526
aI526
aI526
aI526
aI526
aI526
aI526
aI526
aI526
aI526
aI526
aI526
aI526
aI526
aI526
aI526
aI526
aI526
aI526
aI526
aI526
aI526
aI526
aI526
aI526
aI526
aI526
aI526
aI526
aI526
aI526
aI526
aI526
aI526
aI526
aI526
aI526
aI526
aI526
aI526
aI526
aI526
aI526
aI526
aI423
aI423
aI421
aI421
aI421
aI420
aI420
aI420
aI420
aI420
aI420
aI420
aI420
aI423
aI423
aI431
aI55
aI431
aI55
aI431
aI55
aI431
aI55
aI431
aI55
aI431
aI55
aI431
aI55
aI431
aI55
aI431
aI55
aI431
aI55
aI431
aI55
aI431
aI55
aI431
aI55
aI431
aI55
aI431
aI55
aI431
aI55
aI432
aI432
aI461
aI461
aI461
aI461
aI461
aI461
aI461
aI461
aI461
aI461
aI461
aI461
aI461
aI461
aI461
aI461
aI461
aI461
aI461
aI461
aI461
aI461
aI461
aI461
aI461
aI461
aI461
aI461
aI461
aI461
aI461
aI461
aI461
aI461
aI461
aI461
aI461
aI461
aI461
aI461
aI461
aI461
aI461
aI461
aI461
aI461
aI461
aI461
aI461
aI461
aI421
aI421
aI421
aI421
aI421
aI421
aI421
aI421
aI421
aI421
aI421
aI421
aI421
aI421
aI421
aI407
aI407
aI407
aI407
aI407
aI407
aI407
aI407
aI461
aI461
aI461
aI461
aI461
aI411
aI28
aI411
aI28
aI407
aI407
aI407
aI407
aI407
aI407
aI407
aI407
aI461
aI461
aI461
aI461
aI461
aI411
aI28
aI411
aI28
aI407
aI407
aI407
aI407
aI407
aI407
aI407
aI407
aI461
aI461
aI461
aI461
aI461
aI411
aI28
aI411
aI28
aI431
aI55
aI431
aI55
aI431
aI55
aI431
aI55
aI431
aI55
aI431
aI55
aI431
aI55
aI431
aI55
aI431
aI55
aI431
aI55
aI431
aI55
aI431
aI55
aI431
aI55
aI431
aI55
aI431
aI55
aI431
aI55
aI432
aI432
aI461
aI461
aI461
aI461
aI461
aI461
aI461
aI461
aI461
aI461
aI461
aI461
aI461
aI461
aI461
aI461
aI461
aI461
aI461
aI461
aI461
aI461
aI461
aI461
aI461
aI461
aI461
aI461
aI461
aI461
aI461
aI461
aI461
aI461
aI461
aI461
aI461
aI461
aI461
aI461
aI461
aI461
aI461
aI461
aI461
aI461
aI461
aI461
aI461
aI461
aI421
aI421
aI421
aI421
aI421
aI421
aI421
aI421
aI421
aI421
aI421
aI421
aI421
aI421
aI421
aI407
aI407
aI407
aI407
aI407
aI407
aI407
aI407
aI461
aI461
aI461
aI461
aI461
aI411
aI28
aI411
aI28
aI407
aI407
aI407
aI407
aI407
aI407
aI407
aI407
aI461
aI461
aI461
aI461
aI461
aI411
aI28
aI411
aI28
a.